SF:/home/hsin4/myproject/typelang-hm-rs/src/ast.rs
FN:135,_RNCNvXNtCs2uvitLWOfC0_8typelang3astNtB4_4ExprNtNtCs7sLWcwAdHqg_4core3fmt7Display3fmt0B6_
FN:139,_RNCNvXNtCs2uvitLWOfC0_8typelang3astNtB4_4ExprNtNtCs7sLWcwAdHqg_4core3fmt7Display3fmts_0B6_
FN:126,_RNvXNtCs2uvitLWOfC0_8typelang3astNtB2_4ExprNtNtCs7sLWcwAdHqg_4core3fmt7Display3fmt
FN:135,_RNCNvXNtCsdipHdHAMW8K_8typelang3astNtB4_4ExprNtNtCs7sLWcwAdHqg_4core3fmt7Display3fmt0B6_
FN:139,_RNCNvXNtCsdipHdHAMW8K_8typelang3astNtB4_4ExprNtNtCs7sLWcwAdHqg_4core3fmt7Display3fmts_0B6_
FN:126,_RNvXNtCsdipHdHAMW8K_8typelang3astNtB2_4ExprNtNtCs7sLWcwAdHqg_4core3fmt7Display3fmt
FNDA:2,_RNCNvXNtCs2uvitLWOfC0_8typelang3astNtB4_4ExprNtNtCs7sLWcwAdHqg_4core3fmt7Display3fmt0B6_
FNDA:2,_RNCNvXNtCs2uvitLWOfC0_8typelang3astNtB4_4ExprNtNtCs7sLWcwAdHqg_4core3fmt7Display3fmts_0B6_
FNDA:56,_RNvXNtCs2uvitLWOfC0_8typelang3astNtB2_4ExprNtNtCs7sLWcwAdHqg_4core3fmt7Display3fmt
FNDA:0,_RNCNvXNtCsdipHdHAMW8K_8typelang3astNtB4_4ExprNtNtCs7sLWcwAdHqg_4core3fmt7Display3fmt0B6_
FNDA:0,_RNCNvXNtCsdipHdHAMW8K_8typelang3astNtB4_4ExprNtNtCs7sLWcwAdHqg_4core3fmt7Display3fmts_0B6_
FNDA:0,_RNvXNtCsdipHdHAMW8K_8typelang3astNtB2_4ExprNtNtCs7sLWcwAdHqg_4core3fmt7Display3fmt
FNF:3
FNH:3
DA:126,56
DA:127,56
DA:128,11
DA:129,21
DA:130,1
DA:131,1
DA:132,1
DA:133,4
DA:134,1
DA:135,2
DA:136,1
DA:138,1
DA:139,2
DA:140,1
DA:142,1
DA:143,2
DA:144,2
DA:145,6
DA:146,4
DA:147,2
DA:148,2
DA:149,2
DA:150,2
DA:152,2
DA:155,1
DA:156,1
DA:157,1
DA:159,1
DA:161,3
DA:162,7
DA:163,1
DA:165,56
BRDA:133,0,0,3
BRDA:133,0,1,1
BRDA:146,0,0,2
BRDA:146,0,1,2
BRF:4
BRH:4
LF:34
LH:34
end_of_record
SF:/home/hsin4/myproject/typelang-hm-rs/src/bin/typelang.rs
FN:6,_RNvCshOf6X9cTZ2A_13typelang_repl4main
FN:6,_RNvCs1VlPVPGcXJo_13typelang_repl4main
FNDA:0,_RNvCshOf6X9cTZ2A_13typelang_repl4main
FNDA:0,_RNvCs1VlPVPGcXJo_13typelang_repl4main
FNF:1
FNH:0
DA:6,0
DA:7,0
DA:8,0
BRF:0
BRH:0
LF:3
LH:0
end_of_record
SF:/home/hsin4/myproject/typelang-hm-rs/src/errors.rs
FN:56,_RINvMNtCs2uvitLWOfC0_8typelang6errorsNtB3_9ErrorInfo12with_snippetNtNtCsbz1uUYW1aEc_5alloc6string6StringEB5_
FN:39,_RINvMNtCs2uvitLWOfC0_8typelang6errorsNtB3_9ErrorInfo2atNtNtCsbz1uUYW1aEc_5alloc6string6StringEB5_
FN:39,_RINvMNtCs2uvitLWOfC0_8typelang6errorsNtB3_9ErrorInfo2atReEB5_
FN:28,_RINvMNtCs2uvitLWOfC0_8typelang6errorsNtB3_9ErrorInfo3newNtNtCsbz1uUYW1aEc_5alloc6string6StringEB5_
FN:28,_RINvMNtCs2uvitLWOfC0_8typelang6errorsNtB3_9ErrorInfo3newReEB5_
FN:112,_RINvMs0_NtCs2uvitLWOfC0_8typelang6errorsNtB6_10LexerError15at_with_snippetNtNtCsbz1uUYW1aEc_5alloc6string6StringB1a_EB8_
FN:112,_RINvMs0_NtCs2uvitLWOfC0_8typelang6errorsNtB6_10LexerError15at_with_snippetReNtNtCsbz1uUYW1aEc_5alloc6string6StringEB8_
FN:134,_RINvMs1_NtCs2uvitLWOfC0_8typelang6errorsNtB6_10ParseError2atNtNtCsbz1uUYW1aEc_5alloc6string6StringEB8_
FN:134,_RINvMs1_NtCs2uvitLWOfC0_8typelang6errorsNtB6_10ParseError2atReEB8_
FN:130,_RINvMs1_NtCs2uvitLWOfC0_8typelang6errorsNtB6_10ParseError3newNtNtCsbz1uUYW1aEc_5alloc6string6StringEB8_
FN:130,_RINvMs1_NtCs2uvitLWOfC0_8typelang6errorsNtB6_10ParseError3newReEB8_
FN:151,_RINvMs2_NtCs2uvitLWOfC0_8typelang6errorsNtB6_9TypeError3newNtNtCsbz1uUYW1aEc_5alloc6string6StringEB8_
FN:183,_RINvMs3_NtCs2uvitLWOfC0_8typelang6errorsNtB6_9EvalError3newNtNtCsbz1uUYW1aEc_5alloc6string6StringEB8_
FN:183,_RINvMs3_NtCs2uvitLWOfC0_8typelang6errorsNtB6_9EvalError3newReEB8_
FN:201,_RNvXs4_NtCs2uvitLWOfC0_8typelang6errorsNtB5_10LexerErrorNtNtCs7sLWcwAdHqg_4core3fmt7Display3fmt
FN:210,_RNvXs6_NtCs2uvitLWOfC0_8typelang6errorsNtB5_10ParseErrorNtNtCs7sLWcwAdHqg_4core3fmt7Display3fmt
FN:219,_RNvXs8_NtCs2uvitLWOfC0_8typelang6errorsNtB5_9TypeErrorNtNtCs7sLWcwAdHqg_4core3fmt7Display3fmt
FN:65,_RNvXs_NtCs2uvitLWOfC0_8typelang6errorsNtB4_9ErrorInfoNtNtCs7sLWcwAdHqg_4core3fmt7Display3fmt
FN:228,_RNvXsa_NtCs2uvitLWOfC0_8typelang6errorsNtB5_9EvalErrorNtNtCs7sLWcwAdHqg_4core3fmt7Display3fmt
FN:56,_RINvMNtCs2uvitLWOfC0_8typelang6errorsNtB3_9ErrorInfo12with_snippetReECsVlnQd8J0n2_6errors
FN:112,_RINvMs0_NtCs2uvitLWOfC0_8typelang6errorsNtB6_10LexerError15at_with_snippetReB1a_ECsVlnQd8J0n2_6errors
FN:155,_RINvMs2_NtCs2uvitLWOfC0_8typelang6errorsNtB6_9TypeError2atReECsVlnQd8J0n2_6errors
FN:187,_RINvMs3_NtCs2uvitLWOfC0_8typelang6errorsNtB6_9EvalError2atReECsVlnQd8J0n2_6errors
FN:56,_RINvMNtCsdipHdHAMW8K_8typelang6errorsNtB3_9ErrorInfo12with_snippetNtNtCsbz1uUYW1aEc_5alloc6string6StringEB5_
FN:39,_RINvMNtCsdipHdHAMW8K_8typelang6errorsNtB3_9ErrorInfo2atNtNtCsbz1uUYW1aEc_5alloc6string6StringEB5_
FN:39,_RINvMNtCsdipHdHAMW8K_8typelang6errorsNtB3_9ErrorInfo2atReEB5_
FN:28,_RINvMNtCsdipHdHAMW8K_8typelang6errorsNtB3_9ErrorInfo3newNtNtCsbz1uUYW1aEc_5alloc6string6StringEB5_
FN:28,_RINvMNtCsdipHdHAMW8K_8typelang6errorsNtB3_9ErrorInfo3newReEB5_
FN:112,_RINvMs0_NtCsdipHdHAMW8K_8typelang6errorsNtB6_10LexerError15at_with_snippetNtNtCsbz1uUYW1aEc_5alloc6string6StringB1a_EB8_
FN:112,_RINvMs0_NtCsdipHdHAMW8K_8typelang6errorsNtB6_10LexerError15at_with_snippetReNtNtCsbz1uUYW1aEc_5alloc6string6StringEB8_
FN:134,_RINvMs1_NtCsdipHdHAMW8K_8typelang6errorsNtB6_10ParseError2atNtNtCsbz1uUYW1aEc_5alloc6string6StringEB8_
FN:134,_RINvMs1_NtCsdipHdHAMW8K_8typelang6errorsNtB6_10ParseError2atReEB8_
FN:130,_RINvMs1_NtCsdipHdHAMW8K_8typelang6errorsNtB6_10ParseError3newNtNtCsbz1uUYW1aEc_5alloc6string6StringEB8_
FN:130,_RINvMs1_NtCsdipHdHAMW8K_8typelang6errorsNtB6_10ParseError3newReEB8_
FN:151,_RINvMs2_NtCsdipHdHAMW8K_8typelang6errorsNtB6_9TypeError3newNtNtCsbz1uUYW1aEc_5alloc6string6StringEB8_
FN:183,_RINvMs3_NtCsdipHdHAMW8K_8typelang6errorsNtB6_9EvalError3newNtNtCsbz1uUYW1aEc_5alloc6string6StringEB8_
FN:183,_RINvMs3_NtCsdipHdHAMW8K_8typelang6errorsNtB6_9EvalError3newReEB8_
FN:102,_RINvMs0_NtCsdipHdHAMW8K_8typelang6errorsNtB6_10LexerError2atpEB8_
FN:98,_RINvMs0_NtCsdipHdHAMW8K_8typelang6errorsNtB6_10LexerError3newpEB8_
FN:165,_RINvMs2_NtCsdipHdHAMW8K_8typelang6errorsNtB6_9TypeError15at_with_snippetppEB8_
FN:155,_RINvMs2_NtCsdipHdHAMW8K_8typelang6errorsNtB6_9TypeError2atpEB8_
FN:187,_RINvMs3_NtCsdipHdHAMW8K_8typelang6errorsNtB6_9EvalError2atpEB8_
FN:219,_RNvXs8_NtCsdipHdHAMW8K_8typelang6errorsNtB5_9TypeErrorNtNtCs7sLWcwAdHqg_4core3fmt7Display3fmt
FN:201,_RNvXs4_NtCsdipHdHAMW8K_8typelang6errorsNtB5_10LexerErrorNtNtCs7sLWcwAdHqg_4core3fmt7Display3fmt
FN:210,_RNvXs6_NtCsdipHdHAMW8K_8typelang6errorsNtB5_10ParseErrorNtNtCs7sLWcwAdHqg_4core3fmt7Display3fmt
FN:65,_RNvXs_NtCsdipHdHAMW8K_8typelang6errorsNtB4_9ErrorInfoNtNtCs7sLWcwAdHqg_4core3fmt7Display3fmt
FN:228,_RNvXsa_NtCsdipHdHAMW8K_8typelang6errorsNtB5_9EvalErrorNtNtCs7sLWcwAdHqg_4core3fmt7Display3fmt
FNDA:8,_RINvMNtCs2uvitLWOfC0_8typelang6errorsNtB3_9ErrorInfo12with_snippetNtNtCsbz1uUYW1aEc_5alloc6string6StringEB5_
FNDA:4,_RINvMNtCs2uvitLWOfC0_8typelang6errorsNtB3_9ErrorInfo2atNtNtCsbz1uUYW1aEc_5alloc6string6StringEB5_
FNDA:14,_RINvMNtCs2uvitLWOfC0_8typelang6errorsNtB3_9ErrorInfo2atReEB5_
FNDA:6,_RINvMNtCs2uvitLWOfC0_8typelang6errorsNtB3_9ErrorInfo3newNtNtCsbz1uUYW1aEc_5alloc6string6StringEB5_
FNDA:7,_RINvMNtCs2uvitLWOfC0_8typelang6errorsNtB3_9ErrorInfo3newReEB5_
FNDA:1,_RINvMs0_NtCs2uvitLWOfC0_8typelang6errorsNtB6_10LexerError15at_with_snippetNtNtCsbz1uUYW1aEc_5alloc6string6StringB1a_EB8_
FNDA:7,_RINvMs0_NtCs2uvitLWOfC0_8typelang6errorsNtB6_10LexerError15at_with_snippetReNtNtCsbz1uUYW1aEc_5alloc6string6StringEB8_
FNDA:3,_RINvMs1_NtCs2uvitLWOfC0_8typelang6errorsNtB6_10ParseError2atNtNtCsbz1uUYW1aEc_5alloc6string6StringEB8_
FNDA:1,_RINvMs1_NtCs2uvitLWOfC0_8typelang6errorsNtB6_10ParseError2atReEB8_
FNDA:0,_RINvMs1_NtCs2uvitLWOfC0_8typelang6errorsNtB6_10ParseError3newNtNtCsbz1uUYW1aEc_5alloc6string6StringEB8_
FNDA:1,_RINvMs1_NtCs2uvitLWOfC0_8typelang6errorsNtB6_10ParseError3newReEB8_
FNDA:5,_RINvMs2_NtCs2uvitLWOfC0_8typelang6errorsNtB6_9TypeError3newNtNtCsbz1uUYW1aEc_5alloc6string6StringEB8_
FNDA:1,_RINvMs3_NtCs2uvitLWOfC0_8typelang6errorsNtB6_9EvalError3newNtNtCsbz1uUYW1aEc_5alloc6string6StringEB8_
FNDA:4,_RINvMs3_NtCs2uvitLWOfC0_8typelang6errorsNtB6_9EvalError3newReEB8_
FNDA:3,_RNvXs4_NtCs2uvitLWOfC0_8typelang6errorsNtB5_10LexerErrorNtNtCs7sLWcwAdHqg_4core3fmt7Display3fmt
FNDA:2,_RNvXs6_NtCs2uvitLWOfC0_8typelang6errorsNtB5_10ParseErrorNtNtCs7sLWcwAdHqg_4core3fmt7Display3fmt
FNDA:1,_RNvXs8_NtCs2uvitLWOfC0_8typelang6errorsNtB5_9TypeErrorNtNtCs7sLWcwAdHqg_4core3fmt7Display3fmt
FNDA:13,_RNvXs_NtCs2uvitLWOfC0_8typelang6errorsNtB4_9ErrorInfoNtNtCs7sLWcwAdHqg_4core3fmt7Display3fmt
FNDA:2,_RNvXsa_NtCs2uvitLWOfC0_8typelang6errorsNtB5_9EvalErrorNtNtCs7sLWcwAdHqg_4core3fmt7Display3fmt
FNDA:3,_RINvMNtCs2uvitLWOfC0_8typelang6errorsNtB3_9ErrorInfo12with_snippetReECsVlnQd8J0n2_6errors
FNDA:1,_RINvMs0_NtCs2uvitLWOfC0_8typelang6errorsNtB6_10LexerError15at_with_snippetReB1a_ECsVlnQd8J0n2_6errors
FNDA:1,_RINvMs2_NtCs2uvitLWOfC0_8typelang6errorsNtB6_9TypeError2atReECsVlnQd8J0n2_6errors
FNDA:1,_RINvMs3_NtCs2uvitLWOfC0_8typelang6errorsNtB6_9EvalError2atReECsVlnQd8J0n2_6errors
FNDA:0,_RINvMNtCsdipHdHAMW8K_8typelang6errorsNtB3_9ErrorInfo12with_snippetNtNtCsbz1uUYW1aEc_5alloc6string6StringEB5_
FNDA:4,_RINvMNtCsdipHdHAMW8K_8typelang6errorsNtB3_9ErrorInfo2atNtNtCsbz1uUYW1aEc_5alloc6string6StringEB5_
FNDA:0,_RINvMNtCsdipHdHAMW8K_8typelang6errorsNtB3_9ErrorInfo2atReEB5_
FNDA:6,_RINvMNtCsdipHdHAMW8K_8typelang6errorsNtB3_9ErrorInfo3newNtNtCsbz1uUYW1aEc_5alloc6string6StringEB5_
FNDA:0,_RINvMNtCsdipHdHAMW8K_8typelang6errorsNtB3_9ErrorInfo3newReEB5_
FNDA:0,_RINvMs0_NtCsdipHdHAMW8K_8typelang6errorsNtB6_10LexerError15at_with_snippetNtNtCsbz1uUYW1aEc_5alloc6string6StringB1a_EB8_
FNDA:0,_RINvMs0_NtCsdipHdHAMW8K_8typelang6errorsNtB6_10LexerError15at_with_snippetReNtNtCsbz1uUYW1aEc_5alloc6string6StringEB8_
FNDA:4,_RINvMs1_NtCsdipHdHAMW8K_8typelang6errorsNtB6_10ParseError2atNtNtCsbz1uUYW1aEc_5alloc6string6StringEB8_
FNDA:0,_RINvMs1_NtCsdipHdHAMW8K_8typelang6errorsNtB6_10ParseError2atReEB8_
FNDA:1,_RINvMs1_NtCsdipHdHAMW8K_8typelang6errorsNtB6_10ParseError3newNtNtCsbz1uUYW1aEc_5alloc6string6StringEB8_
FNDA:0,_RINvMs1_NtCsdipHdHAMW8K_8typelang6errorsNtB6_10ParseError3newReEB8_
FNDA:3,_RINvMs2_NtCsdipHdHAMW8K_8typelang6errorsNtB6_9TypeError3newNtNtCsbz1uUYW1aEc_5alloc6string6StringEB8_
FNDA:2,_RINvMs3_NtCsdipHdHAMW8K_8typelang6errorsNtB6_9EvalError3newNtNtCsbz1uUYW1aEc_5alloc6string6StringEB8_
FNDA:0,_RINvMs3_NtCsdipHdHAMW8K_8typelang6errorsNtB6_9EvalError3newReEB8_
FNDA:0,_RINvMs0_NtCsdipHdHAMW8K_8typelang6errorsNtB6_10LexerError2atpEB8_
FNDA:0,_RINvMs0_NtCsdipHdHAMW8K_8typelang6errorsNtB6_10LexerError3newpEB8_
FNDA:0,_RINvMs2_NtCsdipHdHAMW8K_8typelang6errorsNtB6_9TypeError15at_with_snippetppEB8_
FNDA:0,_RINvMs2_NtCsdipHdHAMW8K_8typelang6errorsNtB6_9TypeError2atpEB8_
FNDA:0,_RINvMs3_NtCsdipHdHAMW8K_8typelang6errorsNtB6_9EvalError2atpEB8_
FNDA:0,_RNvXs8_NtCsdipHdHAMW8K_8typelang6errorsNtB5_9TypeErrorNtNtCs7sLWcwAdHqg_4core3fmt7Display3fmt
FNDA:0,_RNvXs4_NtCsdipHdHAMW8K_8typelang6errorsNtB5_10LexerErrorNtNtCs7sLWcwAdHqg_4core3fmt7Display3fmt
FNDA:4,_RNvXs6_NtCsdipHdHAMW8K_8typelang6errorsNtB5_10ParseErrorNtNtCs7sLWcwAdHqg_4core3fmt7Display3fmt
FNDA:6,_RNvXs_NtCsdipHdHAMW8K_8typelang6errorsNtB4_9ErrorInfoNtNtCs7sLWcwAdHqg_4core3fmt7Display3fmt
FNDA:2,_RNvXsa_NtCsdipHdHAMW8K_8typelang6errorsNtB5_9EvalErrorNtNtCs7sLWcwAdHqg_4core3fmt7Display3fmt
FNF:18
FNH:15
DA:28,19
DA:29,19
DA:30,19
DA:31,19
DA:32,19
DA:33,19
DA:34,19
DA:35,19
DA:36,19
DA:37,19
DA:39,22
DA:40,22
DA:41,22
DA:42,22
DA:43,22
DA:44,22
DA:45,22
DA:46,22
DA:47,22
DA:48,22
DA:49,22
DA:50,22
DA:51,22
DA:52,22
DA:53,22
DA:54,22
DA:56,11
DA:57,11
DA:58,11
DA:59,11
DA:65,19
DA:67,19
DA:68,9
DA:69,9
DA:70,9
DA:72,0
DA:73,2
DA:74,2
DA:76,4
DA:77,4
DA:80,19
DA:81,5
DA:82,3
DA:84,2
DA:86,5
DA:87,14
DA:88,19
DA:89,19
DA:98,0
DA:99,0
DA:100,0
DA:102,0
DA:103,0
DA:104,0
DA:105,0
DA:106,0
DA:107,0
DA:108,0
DA:109,0
DA:110,0
DA:112,9
DA:113,9
DA:114,9
DA:115,9
DA:116,9
DA:117,9
DA:118,9
DA:119,9
DA:120,9
DA:121,9
DA:130,2
DA:131,2
DA:132,2
DA:134,8
DA:135,8
DA:136,8
DA:137,8
DA:138,8
DA:139,8
DA:140,8
DA:141,8
DA:142,8
DA:151,8
DA:152,8
DA:153,8
DA:155,1
DA:156,1
DA:157,1
DA:158,1
DA:159,1
DA:160,1
DA:161,1
DA:162,1
DA:163,1
DA:165,0
DA:166,0
DA:167,0
DA:168,0
DA:169,0
DA:170,0
DA:171,0
DA:172,0
DA:173,0
DA:174,0
DA:183,7
DA:184,7
DA:185,7
DA:187,1
DA:188,1
DA:189,1
DA:190,1
DA:191,1
DA:192,1
DA:193,1
DA:194,1
DA:195,1
DA:201,3
DA:202,3
DA:203,3
DA:210,6
DA:211,6
DA:212,6
DA:219,1
DA:220,1
DA:221,1
DA:228,4
DA:229,4
DA:230,4
BRDA:80,0,0,5
BRDA:80,0,1,14
BRDA:81,0,0,3
BRDA:81,0,1,2
BRF:4
BRH:4
LF:128
LH:105
end_of_record
SF:/home/hsin4/myproject/typelang-hm-rs/src/evaluator.rs
FN:48,_RNvNtCs2uvitLWOfC0_8typelang9evaluator11initial_env
FN:253,_RNvNtCs2uvitLWOfC0_8typelang9evaluator5apply
FN:291,_RNvNtCs2uvitLWOfC0_8typelang9evaluator6to_int
FN:308,_RNvNtCs2uvitLWOfC0_8typelang9evaluator9eval_expr
FN:299,_RNvNtCs2uvitLWOfC0_8typelang9evaluator9to_double
FN:116,_RNvNvNtCs2uvitLWOfC0_8typelang9evaluator11initial_env18structural_compare
FN:152,_RNvNvNtCs2uvitLWOfC0_8typelang9evaluator11initial_env3eqv
FN:106,_RNvNvNtCs2uvitLWOfC0_8typelang9evaluator11initial_env4powf
FN:91,_RNvNvNtCs2uvitLWOfC0_8typelang9evaluator11initial_env4powi
FN:178,_RNvNvNtCs2uvitLWOfC0_8typelang9evaluator11initial_env5eq_op
FN:201,_RNvNvNtCs2uvitLWOfC0_8typelang9evaluator11initial_env5ge_op
FN:197,_RNvNvNtCs2uvitLWOfC0_8typelang9evaluator11initial_env5gt_op
FN:190,_RNvNvNtCs2uvitLWOfC0_8typelang9evaluator11initial_env5le_op
FN:186,_RNvNvNtCs2uvitLWOfC0_8typelang9evaluator11initial_env5lt_op
FN:182,_RNvNvNtCs2uvitLWOfC0_8typelang9evaluator11initial_env5ne_op
FN:70,_RNvNvNtCs2uvitLWOfC0_8typelang9evaluator11initial_env5prim2
FN:74,_RNvNvNtCs2uvitLWOfC0_8typelang9evaluator11initial_env6add_op
FN:86,_RNvNvNtCs2uvitLWOfC0_8typelang9evaluator11initial_env6div_op
FN:82,_RNvNvNtCs2uvitLWOfC0_8typelang9evaluator11initial_env6mul_op
FN:78,_RNvNvNtCs2uvitLWOfC0_8typelang9evaluator11initial_env6sub_op
FN:166,_RNvNvNtCs2uvitLWOfC0_8typelang9evaluator11initial_env7compare
FN:52,_RNvNvNtCs2uvitLWOfC0_8typelang9evaluator11initial_env7py_show
FN:314,_RNCNvNtCs2uvitLWOfC0_8typelang9evaluator9eval_expr0B5_
FN:97,_RNCNvNvNtCs2uvitLWOfC0_8typelang9evaluator11initial_env4powi0B7_
FN:314,_RNCNvNtCsdipHdHAMW8K_8typelang9evaluator9eval_expr0B5_
FN:97,_RNCNvNvNtCsdipHdHAMW8K_8typelang9evaluator11initial_env4powi0B7_
FN:48,_RNvNtCsdipHdHAMW8K_8typelang9evaluator11initial_env
FN:253,_RNvNtCsdipHdHAMW8K_8typelang9evaluator5apply
FN:291,_RNvNtCsdipHdHAMW8K_8typelang9evaluator6to_int
FN:308,_RNvNtCsdipHdHAMW8K_8typelang9evaluator9eval_expr
FN:299,_RNvNtCsdipHdHAMW8K_8typelang9evaluator9to_double
FN:116,_RNvNvNtCsdipHdHAMW8K_8typelang9evaluator11initial_env18structural_compare
FN:152,_RNvNvNtCsdipHdHAMW8K_8typelang9evaluator11initial_env3eqv
FN:106,_RNvNvNtCsdipHdHAMW8K_8typelang9evaluator11initial_env4powf
FN:91,_RNvNvNtCsdipHdHAMW8K_8typelang9evaluator11initial_env4powi
FN:178,_RNvNvNtCsdipHdHAMW8K_8typelang9evaluator11initial_env5eq_op
FN:201,_RNvNvNtCsdipHdHAMW8K_8typelang9evaluator11initial_env5ge_op
FN:197,_RNvNvNtCsdipHdHAMW8K_8typelang9evaluator11initial_env5gt_op
FN:190,_RNvNvNtCsdipHdHAMW8K_8typelang9evaluator11initial_env5le_op
FN:186,_RNvNvNtCsdipHdHAMW8K_8typelang9evaluator11initial_env5lt_op
FN:182,_RNvNvNtCsdipHdHAMW8K_8typelang9evaluator11initial_env5ne_op
FN:70,_RNvNvNtCsdipHdHAMW8K_8typelang9evaluator11initial_env5prim2
FN:74,_RNvNvNtCsdipHdHAMW8K_8typelang9evaluator11initial_env6add_op
FN:86,_RNvNvNtCsdipHdHAMW8K_8typelang9evaluator11initial_env6div_op
FN:82,_RNvNvNtCsdipHdHAMW8K_8typelang9evaluator11initial_env6mul_op
FN:78,_RNvNvNtCsdipHdHAMW8K_8typelang9evaluator11initial_env6sub_op
FN:166,_RNvNvNtCsdipHdHAMW8K_8typelang9evaluator11initial_env7compare
FN:52,_RNvNvNtCsdipHdHAMW8K_8typelang9evaluator11initial_env7py_show
FNDA:25,_RNvNtCs2uvitLWOfC0_8typelang9evaluator11initial_env
FNDA:114,_RNvNtCs2uvitLWOfC0_8typelang9evaluator5apply
FNDA:28,_RNvNtCs2uvitLWOfC0_8typelang9evaluator6to_int
FNDA:308,_RNvNtCs2uvitLWOfC0_8typelang9evaluator9eval_expr
FNDA:24,_RNvNtCs2uvitLWOfC0_8typelang9evaluator9to_double
FNDA:23,_RNvNvNtCs2uvitLWOfC0_8typelang9evaluator11initial_env18structural_compare
FNDA:6,_RNvNvNtCs2uvitLWOfC0_8typelang9evaluator11initial_env3eqv
FNDA:6,_RNvNvNtCs2uvitLWOfC0_8typelang9evaluator11initial_env4powf
FNDA:9,_RNvNvNtCs2uvitLWOfC0_8typelang9evaluator11initial_env4powi
FNDA:5,_RNvNvNtCs2uvitLWOfC0_8typelang9evaluator11initial_env5eq_op
FNDA:2,_RNvNvNtCs2uvitLWOfC0_8typelang9evaluator11initial_env5ge_op
FNDA:1,_RNvNvNtCs2uvitLWOfC0_8typelang9evaluator11initial_env5gt_op
FNDA:1,_RNvNvNtCs2uvitLWOfC0_8typelang9evaluator11initial_env5le_op
FNDA:5,_RNvNvNtCs2uvitLWOfC0_8typelang9evaluator11initial_env5lt_op
FNDA:1,_RNvNvNtCs2uvitLWOfC0_8typelang9evaluator11initial_env5ne_op
FNDA:300,_RNvNvNtCs2uvitLWOfC0_8typelang9evaluator11initial_env5prim2
FNDA:3,_RNvNvNtCs2uvitLWOfC0_8typelang9evaluator11initial_env6add_op
FNDA:5,_RNvNvNtCs2uvitLWOfC0_8typelang9evaluator11initial_env6div_op
FNDA:3,_RNvNvNtCs2uvitLWOfC0_8typelang9evaluator11initial_env6mul_op
FNDA:8,_RNvNvNtCs2uvitLWOfC0_8typelang9evaluator11initial_env6sub_op
FNDA:9,_RNvNvNtCs2uvitLWOfC0_8typelang9evaluator11initial_env7compare
FNDA:2,_RNvNvNtCs2uvitLWOfC0_8typelang9evaluator11initial_env7py_show
FNDA:1,_RNCNvNtCs2uvitLWOfC0_8typelang9evaluator9eval_expr0B5_
FNDA:1,_RNCNvNvNtCs2uvitLWOfC0_8typelang9evaluator11initial_env4powi0B7_
FNDA:2,_RNCNvNtCsdipHdHAMW8K_8typelang9evaluator9eval_expr0B5_
FNDA:0,_RNCNvNvNtCsdipHdHAMW8K_8typelang9evaluator11initial_env4powi0B7_
FNDA:10,_RNvNtCsdipHdHAMW8K_8typelang9evaluator11initial_env
FNDA:4,_RNvNtCsdipHdHAMW8K_8typelang9evaluator5apply
FNDA:4,_RNvNtCsdipHdHAMW8K_8typelang9evaluator6to_int
FNDA:13,_RNvNtCsdipHdHAMW8K_8typelang9evaluator9eval_expr
FNDA:0,_RNvNtCsdipHdHAMW8K_8typelang9evaluator9to_double
FNDA:0,_RNvNvNtCsdipHdHAMW8K_8typelang9evaluator11initial_env18structural_compare
FNDA:0,_RNvNvNtCsdipHdHAMW8K_8typelang9evaluator11initial_env3eqv
FNDA:0,_RNvNvNtCsdipHdHAMW8K_8typelang9evaluator11initial_env4powf
FNDA:0,_RNvNvNtCsdipHdHAMW8K_8typelang9evaluator11initial_env4powi
FNDA:0,_RNvNvNtCsdipHdHAMW8K_8typelang9evaluator11initial_env5eq_op
FNDA:0,_RNvNvNtCsdipHdHAMW8K_8typelang9evaluator11initial_env5ge_op
FNDA:0,_RNvNvNtCsdipHdHAMW8K_8typelang9evaluator11initial_env5gt_op
FNDA:0,_RNvNvNtCsdipHdHAMW8K_8typelang9evaluator11initial_env5le_op
FNDA:0,_RNvNvNtCsdipHdHAMW8K_8typelang9evaluator11initial_env5lt_op
FNDA:0,_RNvNvNtCsdipHdHAMW8K_8typelang9evaluator11initial_env5ne_op
FNDA:120,_RNvNvNtCsdipHdHAMW8K_8typelang9evaluator11initial_env5prim2
FNDA:2,_RNvNvNtCsdipHdHAMW8K_8typelang9evaluator11initial_env6add_op
FNDA:0,_RNvNvNtCsdipHdHAMW8K_8typelang9evaluator11initial_env6div_op
FNDA:0,_RNvNvNtCsdipHdHAMW8K_8typelang9evaluator11initial_env6mul_op
FNDA:0,_RNvNvNtCsdipHdHAMW8K_8typelang9evaluator11initial_env6sub_op
FNDA:0,_RNvNvNtCsdipHdHAMW8K_8typelang9evaluator11initial_env7compare
FNDA:0,_RNvNvNtCsdipHdHAMW8K_8typelang9evaluator11initial_env7py_show
FNF:24
FNH:24
DA:48,35
DA:49,35
DA:52,2
DA:53,2
DA:54,1
DA:55,0
DA:56,0
DA:57,0
DA:58,0
DA:60,0
DA:63,0
DA:64,0
DA:65,1
DA:67,2
DA:70,420
DA:71,420
DA:72,420
DA:74,5
DA:75,5
DA:76,5
DA:78,8
DA:79,8
DA:80,8
DA:82,3
DA:83,3
DA:84,3
DA:86,5
DA:87,5
DA:88,5
DA:91,9
DA:92,9
DA:93,9
DA:94,8
DA:95,0
DA:96,8
DA:97,8
DA:98,1
DA:99,1
DA:101,1
DA:103,9
DA:106,6
DA:107,6
DA:108,6
DA:116,23
DA:117,23
DA:118,10
DA:119,2
DA:120,0
DA:121,0
DA:123,1
DA:124,1
DA:126,6
DA:127,0
DA:128,0
DA:129,2
DA:130,4
DA:131,4
DA:132,4
DA:133,1
DA:134,3
DA:136,1
DA:138,2
DA:139,4
DA:140,4
DA:141,4
DA:142,1
DA:143,3
DA:145,1
DA:147,0
DA:149,23
DA:152,6
DA:153,6
DA:154,3
DA:155,2
DA:156,0
DA:157,0
DA:158,0
DA:159,0
DA:160,0
DA:161,1
DA:163,6
DA:166,9
DA:167,9
DA:168,8
DA:169,0
DA:170,0
DA:171,0
DA:172,0
DA:173,0
DA:174,1
DA:176,9
DA:178,5
DA:179,5
DA:180,5
DA:182,1
DA:183,1
DA:184,1
DA:186,5
DA:187,5
DA:188,5
DA:190,1
DA:192,1
DA:193,1
DA:195,1
DA:197,1
DA:198,1
DA:199,1
DA:201,2
DA:203,2
DA:204,2
DA:206,2
DA:208,490
DA:209,455
DA:210,105
DA:211,105
DA:212,35
DA:213,35
DA:214,35
DA:216,105
DA:218,35
DA:219,35
DA:220,35
DA:221,35
DA:222,35
DA:223,35
DA:224,35
DA:225,35
DA:226,35
DA:227,70
DA:228,70
DA:229,35
DA:230,35
DA:232,70
DA:234,140
DA:235,140
DA:236,35
DA:237,35
DA:238,35
DA:239,35
DA:241,140
DA:243,35
DA:244,35
DA:245,35
DA:249,35
DA:250,35
DA:253,118
DA:254,118
DA:255,2
DA:256,102
DA:257,102
DA:258,51
DA:260,51
DA:261,51
DA:262,51
DA:263,51
DA:266,13
DA:267,13
DA:268,0
DA:269,13
DA:270,13
DA:271,13
DA:272,13
DA:273,10
DA:275,3
DA:276,3
DA:277,3
DA:278,3
DA:279,3
DA:282,1
DA:283,1
DA:284,1
DA:285,1
DA:286,1
DA:288,118
DA:291,32
DA:292,32
DA:293,32
DA:294,0
DA:295,0
DA:297,32
DA:299,24
DA:300,24
DA:301,9
DA:302,15
DA:303,0
DA:305,24
DA:308,321
DA:310,321
DA:311,100
DA:312,100
DA:313,100
DA:314,100
DA:315,83
DA:316,14
DA:317,2
DA:318,2
DA:319,4
DA:320,6
DA:321,6
DA:322,20
DA:323,14
DA:325,6
DA:327,8
DA:328,8
DA:329,30
DA:330,22
DA:332,8
DA:334,22
DA:335,22
DA:336,22
DA:337,22
DA:338,22
DA:339,4
DA:340,4
DA:341,9
DA:342,5
DA:343,3
DA:345,2
DA:346,2
DA:347,2
DA:348,2
DA:349,2
DA:351,5
DA:353,4
DA:356,0
DA:357,0
DA:358,0
DA:360,0
DA:361,0
DA:362,0
DA:363,0
DA:365,0
DA:368,0
DA:369,0
DA:370,0
DA:371,0
DA:372,0
DA:375,16
DA:376,16
DA:377,16
DA:378,16
DA:380,51
DA:381,51
DA:382,51
DA:383,51
DA:384,51
DA:385,51
DA:387,9
DA:389,321
BRDA:57,0,0,-
BRDA:57,0,1,-
BRDA:93,0,0,8
BRDA:93,0,1,1
BRDA:94,0,0,0
BRDA:94,0,1,8
BRDA:132,0,0,1
BRDA:132,0,1,3
BRDA:141,0,0,1
BRDA:141,0,1,3
BRDA:193,0,0,0
BRDA:193,0,1,1
BRDA:204,0,0,2
BRDA:204,0,1,0
BRDA:257,0,0,51
BRDA:257,0,1,51
BRDA:267,0,0,0
BRDA:267,0,1,13
BRDA:272,0,0,10
BRDA:272,0,1,3
BRDA:342,0,0,3
BRDA:342,0,1,2
BRDA:361,0,0,-
BRDA:361,0,1,-
BRDA:362,0,0,-
BRDA:362,0,1,-
BRF:26
BRH:16
LF:251
LH:211
end_of_record
SF:/home/hsin4/myproject/typelang-hm-rs/src/infer.rs
FN:209,_RINvMNtCs2uvitLWOfC0_8typelang5inferNtB3_8InferCtx14run_with_substNCNvB2_16infer_with_subst0EB5_
FN:303,_RNCNvMNtCs2uvitLWOfC0_8typelang5inferNtB4_8InferCtx10infer_list0B6_
FN:516,_RNCNvMNtCs2uvitLWOfC0_8typelang5inferNtB4_8InferCtx11infer_annot0B6_
FN:206,_RNCNvMNtCs2uvitLWOfC0_8typelang5inferNtB4_8InferCtx16infer_with_subst0B6_
FN:406,_RNCNvMNtCs2uvitLWOfC0_8typelang5inferNtB4_8InferCtx8infer_if0B6_
FN:419,_RNCNvMNtCs2uvitLWOfC0_8typelang5inferNtB4_8InferCtx8infer_ifs_0B6_
FN:454,_RNCNvMNtCs2uvitLWOfC0_8typelang5inferNtB4_8InferCtx9infer_app0B6_
FN:574,_RNCNvMs0_NtCs2uvitLWOfC0_8typelang5inferNtB7_16TypeExprLowering5lower0B9_
FN:616,_RNCNvNtCs2uvitLWOfC0_8typelang5infer24is_type_constructor_like0B5_
FN:292,_RNvMNtCs2uvitLWOfC0_8typelang5inferNtB2_8InferCtx10infer_list
FN:507,_RNvMNtCs2uvitLWOfC0_8typelang5inferNtB2_8InferCtx11infer_annot
FN:469,_RNvMNtCs2uvitLWOfC0_8typelang5inferNtB2_8InferCtx11infer_binop
FN:310,_RNvMNtCs2uvitLWOfC0_8typelang5inferNtB2_8InferCtx11infer_tuple
FN:328,_RNvMNtCs2uvitLWOfC0_8typelang5inferNtB2_8InferCtx12infer_lambda
FN:200,_RNvMNtCs2uvitLWOfC0_8typelang5inferNtB2_8InferCtx16infer_with_subst
FN:288,_RNvMNtCs2uvitLWOfC0_8typelang5inferNtB2_8InferCtx19infer_concrete_type
FN:528,_RNvMNtCs2uvitLWOfC0_8typelang5inferNtB2_8InferCtx20is_negative_exponent
FN:271,_RNvMNtCs2uvitLWOfC0_8typelang5inferNtB2_8InferCtx25infer_constrained_literal
FN:226,_RNvMNtCs2uvitLWOfC0_8typelang5inferNtB2_8InferCtx5infer
FN:392,_RNvMNtCs2uvitLWOfC0_8typelang5inferNtB2_8InferCtx8infer_if
FN:435,_RNvMNtCs2uvitLWOfC0_8typelang5inferNtB2_8InferCtx9infer_app
FN:365,_RNvMNtCs2uvitLWOfC0_8typelang5inferNtB2_8InferCtx9infer_let
FN:253,_RNvMNtCs2uvitLWOfC0_8typelang5inferNtB2_8InferCtx9infer_var
FN:605,_RNvMs0_NtCs2uvitLWOfC0_8typelang5inferNtB5_16TypeExprLowering10fresh_tvar
FN:595,_RNvMs0_NtCs2uvitLWOfC0_8typelang5inferNtB5_16TypeExprLowering14lower_type_con
FN:579,_RNvMs0_NtCs2uvitLWOfC0_8typelang5inferNtB5_16TypeExprLowering14lower_type_var
FN:560,_RNvMs0_NtCs2uvitLWOfC0_8typelang5inferNtB5_16TypeExprLowering5lower
FN:184,_RNvNtCs2uvitLWOfC0_8typelang5infer10infer_expr
FN:54,_RNvNtCs2uvitLWOfC0_8typelang5infer11initial_env
FN:132,_RNvNtCs2uvitLWOfC0_8typelang5infer11pred_scheme
FN:161,_RNvNtCs2uvitLWOfC0_8typelang5infer11show_scheme
FN:78,_RNvNtCs2uvitLWOfC0_8typelang5infer12binop_scheme
FN:105,_RNvNtCs2uvitLWOfC0_8typelang5infer13intpow_scheme
FN:621,_RNvNtCs2uvitLWOfC0_8typelang5infer14infer_type_str
FN:540,_RNvNtCs2uvitLWOfC0_8typelang5infer15type_from_texpr
FN:28,_RNvNtCs2uvitLWOfC0_8typelang5infer17initial_class_env
FN:613,_RNvNtCs2uvitLWOfC0_8typelang5infer24is_type_constructor_like
FN:633,_RNvNtCs2uvitLWOfC0_8typelang5infer30infer_type_str_with_defaulting
FN:551,_RNvXs_NtCs2uvitLWOfC0_8typelang5inferNtB4_16TypeExprLoweringNtNtCs7sLWcwAdHqg_4core7default7Default7default
FN:292,_RNvMNtCsdipHdHAMW8K_8typelang5inferNtB2_8InferCtx10infer_list
FN:507,_RNvMNtCsdipHdHAMW8K_8typelang5inferNtB2_8InferCtx11infer_annot
FN:469,_RNvMNtCsdipHdHAMW8K_8typelang5inferNtB2_8InferCtx11infer_binop
FN:310,_RNvMNtCsdipHdHAMW8K_8typelang5inferNtB2_8InferCtx11infer_tuple
FN:328,_RNvMNtCsdipHdHAMW8K_8typelang5inferNtB2_8InferCtx12infer_lambda
FN:200,_RNvMNtCsdipHdHAMW8K_8typelang5inferNtB2_8InferCtx16infer_with_subst
FN:288,_RNvMNtCsdipHdHAMW8K_8typelang5inferNtB2_8InferCtx19infer_concrete_type
FN:528,_RNvMNtCsdipHdHAMW8K_8typelang5inferNtB2_8InferCtx20is_negative_exponent
FN:271,_RNvMNtCsdipHdHAMW8K_8typelang5inferNtB2_8InferCtx25infer_constrained_literal
FN:226,_RNvMNtCsdipHdHAMW8K_8typelang5inferNtB2_8InferCtx5infer
FN:392,_RNvMNtCsdipHdHAMW8K_8typelang5inferNtB2_8InferCtx8infer_if
FN:435,_RNvMNtCsdipHdHAMW8K_8typelang5inferNtB2_8InferCtx9infer_app
FN:365,_RNvMNtCsdipHdHAMW8K_8typelang5inferNtB2_8InferCtx9infer_let
FN:253,_RNvMNtCsdipHdHAMW8K_8typelang5inferNtB2_8InferCtx9infer_var
FN:605,_RNvMs0_NtCsdipHdHAMW8K_8typelang5inferNtB5_16TypeExprLowering10fresh_tvar
FN:595,_RNvMs0_NtCsdipHdHAMW8K_8typelang5inferNtB5_16TypeExprLowering14lower_type_con
FN:579,_RNvMs0_NtCsdipHdHAMW8K_8typelang5inferNtB5_16TypeExprLowering14lower_type_var
FN:560,_RNvMs0_NtCsdipHdHAMW8K_8typelang5inferNtB5_16TypeExprLowering5lower
FN:184,_RNvNtCsdipHdHAMW8K_8typelang5infer10infer_expr
FN:54,_RNvNtCsdipHdHAMW8K_8typelang5infer11initial_env
FN:132,_RNvNtCsdipHdHAMW8K_8typelang5infer11pred_scheme
FN:161,_RNvNtCsdipHdHAMW8K_8typelang5infer11show_scheme
FN:78,_RNvNtCsdipHdHAMW8K_8typelang5infer12binop_scheme
FN:105,_RNvNtCsdipHdHAMW8K_8typelang5infer13intpow_scheme
FN:540,_RNvNtCsdipHdHAMW8K_8typelang5infer15type_from_texpr
FN:28,_RNvNtCsdipHdHAMW8K_8typelang5infer17initial_class_env
FN:613,_RNvNtCsdipHdHAMW8K_8typelang5infer24is_type_constructor_like
FN:551,_RNvXs_NtCsdipHdHAMW8K_8typelang5inferNtB4_16TypeExprLoweringNtNtCs7sLWcwAdHqg_4core7default7Default7default
FN:209,_RINvMNtCsdipHdHAMW8K_8typelang5inferNtB3_8InferCtx14run_with_substNCNvB2_16infer_with_subst0EB5_
FN:303,_RNCNvMNtCsdipHdHAMW8K_8typelang5inferNtB4_8InferCtx10infer_list0B6_
FN:516,_RNCNvMNtCsdipHdHAMW8K_8typelang5inferNtB4_8InferCtx11infer_annot0B6_
FN:206,_RNCNvMNtCsdipHdHAMW8K_8typelang5inferNtB4_8InferCtx16infer_with_subst0B6_
FN:406,_RNCNvMNtCsdipHdHAMW8K_8typelang5inferNtB4_8InferCtx8infer_if0B6_
FN:419,_RNCNvMNtCsdipHdHAMW8K_8typelang5inferNtB4_8InferCtx8infer_ifs_0B6_
FN:454,_RNCNvMNtCsdipHdHAMW8K_8typelang5inferNtB4_8InferCtx9infer_app0B6_
FN:574,_RNCNvMs0_NtCsdipHdHAMW8K_8typelang5inferNtB7_16TypeExprLowering5lower0B9_
FN:616,_RNCNvNtCsdipHdHAMW8K_8typelang5infer24is_type_constructor_like0B5_
FN:621,_RNvNtCsdipHdHAMW8K_8typelang5infer14infer_type_str
FN:633,_RNvNtCsdipHdHAMW8K_8typelang5infer30infer_type_str_with_defaulting
FNDA:219,_RINvMNtCs2uvitLWOfC0_8typelang5inferNtB3_8InferCtx14run_with_substNCNvB2_16infer_with_subst0EB5_
FNDA:0,_RNCNvMNtCs2uvitLWOfC0_8typelang5inferNtB4_8InferCtx10infer_list0B6_
FNDA:0,_RNCNvMNtCs2uvitLWOfC0_8typelang5inferNtB4_8InferCtx11infer_annot0B6_
FNDA:219,_RNCNvMNtCs2uvitLWOfC0_8typelang5inferNtB4_8InferCtx16infer_with_subst0B6_
FNDA:2,_RNCNvMNtCs2uvitLWOfC0_8typelang5inferNtB4_8InferCtx8infer_if0B6_
FNDA:1,_RNCNvMNtCs2uvitLWOfC0_8typelang5inferNtB4_8InferCtx8infer_ifs_0B6_
FNDA:0,_RNCNvMNtCs2uvitLWOfC0_8typelang5inferNtB4_8InferCtx9infer_app0B6_
FNDA:18,_RNCNvMs0_NtCs2uvitLWOfC0_8typelang5inferNtB7_16TypeExprLowering5lower0B9_
FNDA:29,_RNCNvNtCs2uvitLWOfC0_8typelang5infer24is_type_constructor_like0B5_
FNDA:2,_RNvMNtCs2uvitLWOfC0_8typelang5inferNtB2_8InferCtx10infer_list
FNDA:15,_RNvMNtCs2uvitLWOfC0_8typelang5inferNtB2_8InferCtx11infer_annot
FNDA:33,_RNvMNtCs2uvitLWOfC0_8typelang5inferNtB2_8InferCtx11infer_binop
FNDA:4,_RNvMNtCs2uvitLWOfC0_8typelang5inferNtB2_8InferCtx11infer_tuple
FNDA:25,_RNvMNtCs2uvitLWOfC0_8typelang5inferNtB2_8InferCtx12infer_lambda
FNDA:219,_RNvMNtCs2uvitLWOfC0_8typelang5inferNtB2_8InferCtx16infer_with_subst
FNDA:14,_RNvMNtCs2uvitLWOfC0_8typelang5inferNtB2_8InferCtx19infer_concrete_type
FNDA:2,_RNvMNtCs2uvitLWOfC0_8typelang5inferNtB2_8InferCtx20is_negative_exponent
FNDA:49,_RNvMNtCs2uvitLWOfC0_8typelang5inferNtB2_8InferCtx25infer_constrained_literal
FNDA:332,_RNvMNtCs2uvitLWOfC0_8typelang5inferNtB2_8InferCtx5infer
FNDA:6,_RNvMNtCs2uvitLWOfC0_8typelang5inferNtB2_8InferCtx8infer_if
FNDA:79,_RNvMNtCs2uvitLWOfC0_8typelang5inferNtB2_8InferCtx9infer_app
FNDA:3,_RNvMNtCs2uvitLWOfC0_8typelang5inferNtB2_8InferCtx9infer_let
FNDA:102,_RNvMNtCs2uvitLWOfC0_8typelang5inferNtB2_8InferCtx9infer_var
FNDA:12,_RNvMs0_NtCs2uvitLWOfC0_8typelang5inferNtB5_16TypeExprLowering10fresh_tvar
FNDA:26,_RNvMs0_NtCs2uvitLWOfC0_8typelang5inferNtB5_16TypeExprLowering14lower_type_con
FNDA:29,_RNvMs0_NtCs2uvitLWOfC0_8typelang5inferNtB5_16TypeExprLowering14lower_type_var
FNDA:76,_RNvMs0_NtCs2uvitLWOfC0_8typelang5inferNtB5_16TypeExprLowering5lower
FNDA:59,_RNvNtCs2uvitLWOfC0_8typelang5infer10infer_expr
FNDA:18,_RNvNtCs2uvitLWOfC0_8typelang5infer11initial_env
FNDA:108,_RNvNtCs2uvitLWOfC0_8typelang5infer11pred_scheme
FNDA:18,_RNvNtCs2uvitLWOfC0_8typelang5infer11show_scheme
FNDA:90,_RNvNtCs2uvitLWOfC0_8typelang5infer12binop_scheme
FNDA:18,_RNvNtCs2uvitLWOfC0_8typelang5infer13intpow_scheme
FNDA:4,_RNvNtCs2uvitLWOfC0_8typelang5infer14infer_type_str
FNDA:27,_RNvNtCs2uvitLWOfC0_8typelang5infer15type_from_texpr
FNDA:18,_RNvNtCs2uvitLWOfC0_8typelang5infer17initial_class_env
FNDA:29,_RNvNtCs2uvitLWOfC0_8typelang5infer24is_type_constructor_like
FNDA:3,_RNvNtCs2uvitLWOfC0_8typelang5infer30infer_type_str_with_defaulting
FNDA:27,_RNvXs_NtCs2uvitLWOfC0_8typelang5inferNtB4_16TypeExprLoweringNtNtCs7sLWcwAdHqg_4core7default7Default7default
FNDA:0,_RNvMNtCsdipHdHAMW8K_8typelang5inferNtB2_8InferCtx10infer_list
FNDA:0,_RNvMNtCsdipHdHAMW8K_8typelang5inferNtB2_8InferCtx11infer_annot
FNDA:2,_RNvMNtCsdipHdHAMW8K_8typelang5inferNtB2_8InferCtx11infer_binop
FNDA:0,_RNvMNtCsdipHdHAMW8K_8typelang5inferNtB2_8InferCtx11infer_tuple
FNDA:0,_RNvMNtCsdipHdHAMW8K_8typelang5inferNtB2_8InferCtx12infer_lambda
FNDA:6,_RNvMNtCsdipHdHAMW8K_8typelang5inferNtB2_8InferCtx16infer_with_subst
FNDA:0,_RNvMNtCsdipHdHAMW8K_8typelang5inferNtB2_8InferCtx19infer_concrete_type
FNDA:0,_RNvMNtCsdipHdHAMW8K_8typelang5inferNtB2_8InferCtx20is_negative_exponent
FNDA:6,_RNvMNtCsdipHdHAMW8K_8typelang5inferNtB2_8InferCtx25infer_constrained_literal
FNDA:16,_RNvMNtCsdipHdHAMW8K_8typelang5inferNtB2_8InferCtx5infer
FNDA:0,_RNvMNtCsdipHdHAMW8K_8typelang5inferNtB2_8InferCtx8infer_if
FNDA:4,_RNvMNtCsdipHdHAMW8K_8typelang5inferNtB2_8InferCtx9infer_app
FNDA:0,_RNvMNtCsdipHdHAMW8K_8typelang5inferNtB2_8InferCtx9infer_let
FNDA:4,_RNvMNtCsdipHdHAMW8K_8typelang5inferNtB2_8InferCtx9infer_var
FNDA:0,_RNvMs0_NtCsdipHdHAMW8K_8typelang5inferNtB5_16TypeExprLowering10fresh_tvar
FNDA:0,_RNvMs0_NtCsdipHdHAMW8K_8typelang5inferNtB5_16TypeExprLowering14lower_type_con
FNDA:0,_RNvMs0_NtCsdipHdHAMW8K_8typelang5inferNtB5_16TypeExprLowering14lower_type_var
FNDA:0,_RNvMs0_NtCsdipHdHAMW8K_8typelang5inferNtB5_16TypeExprLowering5lower
FNDA:8,_RNvNtCsdipHdHAMW8K_8typelang5infer10infer_expr
FNDA:1,_RNvNtCsdipHdHAMW8K_8typelang5infer11initial_env
FNDA:6,_RNvNtCsdipHdHAMW8K_8typelang5infer11pred_scheme
FNDA:1,_RNvNtCsdipHdHAMW8K_8typelang5infer11show_scheme
FNDA:5,_RNvNtCsdipHdHAMW8K_8typelang5infer12binop_scheme
FNDA:1,_RNvNtCsdipHdHAMW8K_8typelang5infer13intpow_scheme
FNDA:0,_RNvNtCsdipHdHAMW8K_8typelang5infer15type_from_texpr
FNDA:10,_RNvNtCsdipHdHAMW8K_8typelang5infer17initial_class_env
FNDA:0,_RNvNtCsdipHdHAMW8K_8typelang5infer24is_type_constructor_like
FNDA:0,_RNvXs_NtCsdipHdHAMW8K_8typelang5inferNtB4_16TypeExprLoweringNtNtCs7sLWcwAdHqg_4core7default7Default7default
FNDA:6,_RINvMNtCsdipHdHAMW8K_8typelang5inferNtB3_8InferCtx14run_with_substNCNvB2_16infer_with_subst0EB5_
FNDA:0,_RNCNvMNtCsdipHdHAMW8K_8typelang5inferNtB4_8InferCtx10infer_list0B6_
FNDA:0,_RNCNvMNtCsdipHdHAMW8K_8typelang5inferNtB4_8InferCtx11infer_annot0B6_
FNDA:6,_RNCNvMNtCsdipHdHAMW8K_8typelang5inferNtB4_8InferCtx16infer_with_subst0B6_
FNDA:0,_RNCNvMNtCsdipHdHAMW8K_8typelang5inferNtB4_8InferCtx8infer_if0B6_
FNDA:0,_RNCNvMNtCsdipHdHAMW8K_8typelang5inferNtB4_8InferCtx8infer_ifs_0B6_
FNDA:0,_RNCNvMNtCsdipHdHAMW8K_8typelang5inferNtB4_8InferCtx9infer_app0B6_
FNDA:0,_RNCNvMs0_NtCsdipHdHAMW8K_8typelang5inferNtB7_16TypeExprLowering5lower0B9_
FNDA:0,_RNCNvNtCsdipHdHAMW8K_8typelang5infer24is_type_constructor_like0B5_
FNDA:0,_RNvNtCsdipHdHAMW8K_8typelang5infer14infer_type_str
FNDA:0,_RNvNtCsdipHdHAMW8K_8typelang5infer30infer_type_str_with_defaulting
FNF:39
FNH:36
DA:28,28
DA:29,28
DA:31,28
DA:32,28
DA:33,28
DA:34,28
DA:35,28
DA:37,140
DA:38,140
DA:39,140
DA:40,140
DA:41,140
DA:42,84
DA:43,84
DA:44,84
DA:45,28
DA:47,28
DA:48,28
DA:49,28
DA:50,28
DA:51,28
DA:54,19
DA:55,19
DA:56,19
DA:58,266
DA:59,247
DA:60,57
DA:61,19
DA:62,19
DA:63,19
DA:64,19
DA:65,19
DA:66,19
DA:67,19
DA:68,38
DA:69,76
DA:70,19
DA:74,19
DA:75,19
DA:78,95
DA:79,95
DA:80,95
DA:81,95
DA:82,95
DA:83,95
DA:84,95
DA:85,95
DA:86,95
DA:87,95
DA:88,95
DA:89,95
DA:90,95
DA:91,95
DA:92,95
DA:94,95
DA:95,95
DA:96,0
DA:98,95
DA:99,95
DA:100,95
DA:101,95
DA:102,95
DA:105,19
DA:106,19
DA:107,19
DA:108,19
DA:109,19
DA:110,19
DA:111,19
DA:112,19
DA:113,19
DA:114,19
DA:115,19
DA:116,19
DA:117,19
DA:118,19
DA:119,19
DA:121,19
DA:122,19
DA:123,0
DA:125,19
DA:126,19
DA:127,19
DA:128,19
DA:129,19
DA:132,114
DA:133,114
DA:134,114
DA:135,114
DA:136,114
DA:137,114
DA:138,114
DA:139,114
DA:140,114
DA:141,114
DA:142,114
DA:143,114
DA:144,114
DA:145,114
DA:146,114
DA:147,114
DA:148,114
DA:150,114
DA:151,114
DA:152,0
DA:154,114
DA:155,114
DA:156,114
DA:157,114
DA:158,114
DA:161,19
DA:162,19
DA:163,19
DA:164,19
DA:165,19
DA:166,19
DA:167,19
DA:168,19
DA:169,0
DA:171,19
DA:172,19
DA:173,19
DA:174,19
DA:175,19
DA:176,19
DA:177,19
DA:178,19
DA:179,19
DA:180,19
DA:181,19
DA:184,67
DA:185,67
DA:186,67
DA:187,67
DA:188,67
DA:189,67
DA:190,67
DA:191,67
DA:192,67
DA:200,225
DA:201,225
DA:202,225
DA:203,225
DA:204,225
DA:205,225
DA:206,225
DA:207,225
DA:209,225
DA:210,225
DA:211,225
DA:213,225
DA:214,225
DA:215,225
DA:216,223
DA:217,223
DA:218,223
DA:219,2
DA:220,2
DA:221,2
DA:223,225
DA:224,225
DA:226,348
DA:227,348
DA:228,106
DA:229,49
DA:230,6
DA:231,5
DA:232,5
DA:233,5
DA:234,5
DA:235,4
DA:236,4
DA:237,4
DA:238,2
DA:239,4
DA:240,25
DA:241,3
DA:243,6
DA:244,6
DA:245,6
DA:246,6
DA:247,83
DA:248,35
DA:249,15
DA:251,348
DA:253,106
DA:254,106
DA:255,0
DA:256,0
DA:257,106
DA:259,106
DA:260,101
DA:261,101
DA:262,5
DA:264,5
DA:265,5
DA:266,5
DA:267,5
DA:268,5
DA:269,106
DA:271,55
DA:272,55
DA:273,55
DA:274,55
DA:275,55
DA:276,55
DA:277,55
DA:278,55
DA:279,55
DA:280,55
DA:281,55
DA:282,55
DA:283,55
DA:284,55
DA:285,55
DA:286,55
DA:288,14
DA:289,14
DA:290,14
DA:292,2
DA:293,2
DA:294,2
DA:295,2
DA:296,2
DA:297,2
DA:298,2
DA:299,8
DA:300,6
DA:301,6
DA:302,6
DA:303,6
DA:304,6
DA:306,2
DA:307,2
DA:308,2
DA:310,4
DA:311,4
DA:312,4
DA:313,4
DA:314,4
DA:315,4
DA:316,4
DA:317,18
DA:318,14
DA:319,14
DA:320,14
DA:322,4
DA:323,4
DA:324,4
DA:325,4
DA:326,4
DA:328,25
DA:329,25
DA:330,25
DA:331,25
DA:332,25
DA:333,25
DA:334,25
DA:335,25
DA:336,25
DA:338,58
DA:339,33
DA:340,33
DA:341,33
DA:342,33
DA:343,33
DA:344,33
DA:345,33
DA:346,33
DA:347,33
DA:348,33
DA:350,25
DA:351,25
DA:352,25
DA:353,33
DA:354,33
DA:355,33
DA:356,33
DA:357,33
DA:358,33
DA:359,25
DA:360,25
DA:361,25
DA:362,25
DA:363,25
DA:365,3
DA:366,3
DA:367,3
DA:368,3
DA:369,3
DA:370,3
DA:371,3
DA:372,3
DA:373,8
DA:374,5
DA:375,3
DA:377,2
DA:378,2
DA:379,2
DA:380,2
DA:382,5
DA:383,5
DA:384,5
DA:385,5
DA:387,3
DA:388,3
DA:389,3
DA:390,3
DA:392,6
DA:393,6
DA:394,6
DA:395,6
DA:396,6
DA:397,6
DA:398,6
DA:399,6
DA:400,6
DA:401,6
DA:402,6
DA:403,6
DA:404,6
DA:406,6
DA:407,4
DA:409,4
DA:410,4
DA:412,4
DA:413,4
DA:415,4
DA:416,4
DA:417,4
DA:419,4
DA:420,3
DA:422,3
DA:423,3
DA:424,3
DA:425,3
DA:426,3
DA:427,3
DA:428,3
DA:429,3
DA:430,3
DA:431,3
DA:432,3
DA:433,6
DA:435,83
DA:436,83
DA:437,83
DA:438,83
DA:439,83
DA:440,83
DA:441,83
DA:442,83
DA:443,81
DA:444,81
DA:445,81
DA:446,81
DA:447,81
DA:448,81
DA:449,81
DA:450,81
DA:451,81
DA:452,81
DA:454,81
DA:455,81
DA:456,81
DA:457,81
DA:458,81
DA:459,81
DA:460,81
DA:461,81
DA:462,81
DA:463,81
DA:464,81
DA:465,81
DA:466,81
DA:467,83
DA:469,35
DA:470,35
DA:471,35
DA:472,35
DA:473,35
DA:474,35
DA:475,35
DA:476,35
DA:477,1
DA:478,1
DA:479,1
DA:480,1
DA:481,1
DA:482,1
DA:483,1
DA:484,1
DA:485,1
DA:486,1
DA:487,1
DA:488,1
DA:489,1
DA:490,1
DA:491,1
DA:492,1
DA:493,34
DA:495,34
DA:496,34
DA:497,34
DA:498,34
DA:499,34
DA:500,34
DA:501,34
DA:502,34
DA:503,34
DA:504,34
DA:505,35
DA:507,15
DA:508,15
DA:509,15
DA:510,15
DA:511,15
DA:512,15
DA:513,15
DA:514,15
DA:515,15
DA:516,15
DA:517,15
DA:518,15
DA:519,15
DA:520,15
DA:521,15
DA:522,15
DA:523,15
DA:524,15
DA:525,15
DA:526,15
DA:528,2
DA:529,1
DA:530,1
DA:531,1
DA:532,1
DA:533,1
DA:534,1
DA:536,2
DA:540,27
DA:541,27
DA:542,27
DA:543,27
DA:551,27
DA:552,27
DA:553,27
DA:554,27
DA:555,27
DA:556,27
DA:560,76
DA:561,76
DA:562,29
DA:563,26
DA:564,0
DA:565,0
DA:566,0
DA:567,0
DA:568,14
DA:569,14
DA:570,14
DA:571,14
DA:572,3
DA:573,4
DA:574,18
DA:577,76
DA:579,29
DA:580,29
DA:581,0
DA:582,0
DA:583,0
DA:584,29
DA:585,29
DA:586,17
DA:588,12
DA:589,12
DA:590,12
DA:592,29
DA:593,29
DA:595,26
DA:596,26
DA:597,0
DA:599,26
DA:600,26
DA:601,26
DA:603,26
DA:605,12
DA:607,12
DA:608,12
DA:609,12
DA:610,12
DA:613,29
DA:614,29
DA:615,29
DA:616,29
DA:617,29
DA:618,29
DA:621,4
DA:622,4
DA:623,4
DA:624,4
DA:625,4
DA:626,4
DA:627,4
DA:628,4
DA:629,4
DA:630,4
DA:633,3
DA:634,3
DA:635,3
DA:636,3
DA:637,3
DA:638,3
DA:639,3
DA:640,3
DA:641,3
DA:642,3
DA:643,3
DA:644,3
DA:645,2
DA:646,2
DA:648,1
DA:650,3
BRDA:254,0,0,0
BRDA:254,0,1,106
BRDA:254,1,2,0
BRDA:254,1,3,106
BRDA:259,0,0,101
BRDA:259,0,1,5
BRDA:374,0,0,3
BRDA:374,0,1,2
BRDA:476,0,0,2
BRDA:476,0,1,33
BRDA:476,1,2,1
BRDA:476,1,3,1
BRDA:532,0,0,1
BRDA:532,0,1,0
BRDA:580,0,0,0
BRDA:580,0,1,29
BRDA:585,0,0,17
BRDA:585,0,1,12
BRDA:596,0,0,0
BRDA:596,0,1,26
BRDA:644,0,0,2
BRDA:644,0,1,1
BRF:22
BRH:17
LF:531
LH:514
end_of_record
SF:/home/hsin4/myproject/typelang-hm-rs/src/lexer.rs
FN:257,_RNCNvNtCs2uvitLWOfC0_8typelang5lexer3lex0B5_
FN:82,_RNvMNtCs2uvitLWOfC0_8typelang5lexerNtB2_7LineMap3new
FN:96,_RNvMNtCs2uvitLWOfC0_8typelang5lexerNtB2_7LineMap6locate
FN:109,_RNvMNtCs2uvitLWOfC0_8typelang5lexerNtB2_7LineMap9line_text
FN:141,_RNvNtCs2uvitLWOfC0_8typelang5lexer11is_bindigit
FN:133,_RNvNtCs2uvitLWOfC0_8typelang5lexer11is_hexdigit
FN:137,_RNvNtCs2uvitLWOfC0_8typelang5lexer11is_octdigit
FN:149,_RNvNtCs2uvitLWOfC0_8typelang5lexer13is_ident_rest
FN:125,_RNvNtCs2uvitLWOfC0_8typelang5lexer13is_whitespace
FN:154,_RNvNtCs2uvitLWOfC0_8typelang5lexer15skip_whitespace
FN:233,_RNvNtCs2uvitLWOfC0_8typelang5lexer17push_simple_token
FN:171,_RNvNtCs2uvitLWOfC0_8typelang5lexer17skip_line_comment
FN:190,_RNvNtCs2uvitLWOfC0_8typelang5lexer18skip_block_comment
FN:252,_RNvNtCs2uvitLWOfC0_8typelang5lexer3lex
FN:129,_RNvNtCs2uvitLWOfC0_8typelang5lexer8is_digit
FN:145,_RNvNtCs2uvitLWOfC0_8typelang5lexer9is_letter
FN:82,_RNvMNtCsdipHdHAMW8K_8typelang5lexerNtB2_7LineMap3new
FN:96,_RNvMNtCsdipHdHAMW8K_8typelang5lexerNtB2_7LineMap6locate
FN:109,_RNvMNtCsdipHdHAMW8K_8typelang5lexerNtB2_7LineMap9line_text
FN:141,_RNvNtCsdipHdHAMW8K_8typelang5lexer11is_bindigit
FN:133,_RNvNtCsdipHdHAMW8K_8typelang5lexer11is_hexdigit
FN:137,_RNvNtCsdipHdHAMW8K_8typelang5lexer11is_octdigit
FN:149,_RNvNtCsdipHdHAMW8K_8typelang5lexer13is_ident_rest
FN:125,_RNvNtCsdipHdHAMW8K_8typelang5lexer13is_whitespace
FN:154,_RNvNtCsdipHdHAMW8K_8typelang5lexer15skip_whitespace
FN:233,_RNvNtCsdipHdHAMW8K_8typelang5lexer17push_simple_token
FN:171,_RNvNtCsdipHdHAMW8K_8typelang5lexer17skip_line_comment
FN:190,_RNvNtCsdipHdHAMW8K_8typelang5lexer18skip_block_comment
FN:252,_RNvNtCsdipHdHAMW8K_8typelang5lexer3lex
FN:129,_RNvNtCsdipHdHAMW8K_8typelang5lexer8is_digit
FN:145,_RNvNtCsdipHdHAMW8K_8typelang5lexer9is_letter
FN:257,_RNCNvNtCsdipHdHAMW8K_8typelang5lexer3lex0B5_
FNDA:9328,_RNCNvNtCs2uvitLWOfC0_8typelang5lexer3lex0B5_
FNDA:71,_RNvMNtCs2uvitLWOfC0_8typelang5lexerNtB2_7LineMap3new
FNDA:1176,_RNvMNtCs2uvitLWOfC0_8typelang5lexerNtB2_7LineMap6locate
FNDA:8,_RNvMNtCs2uvitLWOfC0_8typelang5lexerNtB2_7LineMap9line_text
FNDA:16,_RNvNtCs2uvitLWOfC0_8typelang5lexer11is_bindigit
FNDA:12,_RNvNtCs2uvitLWOfC0_8typelang5lexer11is_hexdigit
FNDA:7,_RNvNtCs2uvitLWOfC0_8typelang5lexer11is_octdigit
FNDA:1354,_RNvNtCs2uvitLWOfC0_8typelang5lexer13is_ident_rest
FNDA:2600,_RNvNtCs2uvitLWOfC0_8typelang5lexer13is_whitespace
FNDA:1839,_RNvNtCs2uvitLWOfC0_8typelang5lexer15skip_whitespace
FNDA:626,_RNvNtCs2uvitLWOfC0_8typelang5lexer17push_simple_token
FNDA:1144,_RNvNtCs2uvitLWOfC0_8typelang5lexer17skip_line_comment
FNDA:1149,_RNvNtCs2uvitLWOfC0_8typelang5lexer18skip_block_comment
FNDA:71,_RNvNtCs2uvitLWOfC0_8typelang5lexer3lex
FNDA:893,_RNvNtCs2uvitLWOfC0_8typelang5lexer8is_digit
FNDA:396,_RNvNtCs2uvitLWOfC0_8typelang5lexer9is_letter
FNDA:13,_RNvMNtCsdipHdHAMW8K_8typelang5lexerNtB2_7LineMap3new
FNDA:49,_RNvMNtCsdipHdHAMW8K_8typelang5lexerNtB2_7LineMap6locate
FNDA:0,_RNvMNtCsdipHdHAMW8K_8typelang5lexerNtB2_7LineMap9line_text
FNDA:0,_RNvNtCsdipHdHAMW8K_8typelang5lexer11is_bindigit
FNDA:0,_RNvNtCsdipHdHAMW8K_8typelang5lexer11is_hexdigit
FNDA:0,_RNvNtCsdipHdHAMW8K_8typelang5lexer11is_octdigit
FNDA:38,_RNvNtCsdipHdHAMW8K_8typelang5lexer13is_ident_rest
FNDA:72,_RNvNtCsdipHdHAMW8K_8typelang5lexer13is_whitespace
FNDA:54,_RNvNtCsdipHdHAMW8K_8typelang5lexer15skip_whitespace
FNDA:25,_RNvNtCsdipHdHAMW8K_8typelang5lexer17push_simple_token
FNDA:36,_RNvNtCsdipHdHAMW8K_8typelang5lexer17skip_line_comment
FNDA:36,_RNvNtCsdipHdHAMW8K_8typelang5lexer18skip_block_comment
FNDA:13,_RNvNtCsdipHdHAMW8K_8typelang5lexer3lex
FNDA:39,_RNvNtCsdipHdHAMW8K_8typelang5lexer8is_digit
FNDA:15,_RNvNtCsdipHdHAMW8K_8typelang5lexer9is_letter
FNDA:137,_RNCNvNtCsdipHdHAMW8K_8typelang5lexer3lex0B5_
FNF:16
FNH:16
DA:82,84
DA:83,84
DA:84,9077
DA:85,9077
DA:86,141
DA:87,141
DA:88,141
DA:89,141
DA:90,8936
DA:92,84
DA:93,84
DA:96,1225
DA:97,1225
DA:98,139
DA:99,0
DA:100,1086
DA:102,1225
DA:103,1225
DA:104,1225
DA:105,1225
DA:106,1225
DA:109,8
DA:110,8
DA:111,0
DA:112,8
DA:113,8
DA:114,8
DA:115,0
DA:116,8
DA:117,8
DA:118,8
DA:119,8
DA:120,8
DA:121,8
DA:125,2672
DA:126,2672
DA:127,2672
DA:129,932
DA:130,932
DA:131,932
DA:133,12
DA:134,12
DA:135,12
DA:137,7
DA:138,7
DA:139,7
DA:141,16
DA:142,16
DA:143,16
DA:145,411
DA:146,411
DA:147,411
DA:149,1392
DA:150,1392
DA:151,1392
DA:154,1893
DA:155,1893
DA:156,2678
DA:157,2672
DA:158,0
DA:160,2672
DA:161,785
DA:162,785
DA:163,785
DA:164,1887
DA:167,1893
DA:168,1893
DA:171,1180
DA:172,1180
DA:173,1147
DA:174,33
DA:175,33
DA:176,616
DA:177,616
DA:178,616
DA:179,616
DA:180,616
DA:181,616
DA:182,616
DA:183,33
DA:184,583
DA:186,33
DA:187,1180
DA:190,1185
DA:191,1185
DA:192,1185
DA:193,1185
DA:194,1185
DA:195,1185
DA:196,1180
DA:197,5
DA:198,5
DA:199,5
DA:200,100
DA:201,98
DA:202,5
DA:203,5
DA:204,5
DA:205,3
DA:206,3
DA:207,2
DA:208,2
DA:209,93
DA:210,93
DA:211,2
DA:212,2
DA:213,2
DA:214,91
DA:215,91
DA:216,0
DA:218,91
DA:220,2
DA:221,2
DA:222,2
DA:223,2
DA:224,2
DA:225,2
DA:226,2
DA:227,2
DA:228,2
DA:229,2
DA:230,1185
DA:233,651
DA:234,651
DA:235,651
DA:236,651
DA:237,651
DA:238,651
DA:239,651
DA:240,651
DA:241,651
DA:242,651
DA:243,651
DA:244,651
DA:245,651
DA:246,651
DA:247,651
DA:248,651
DA:249,651
DA:252,84
DA:253,84
DA:254,84
DA:255,84
DA:256,84
DA:257,9465
DA:258,84
DA:259,1969
DA:260,1893
DA:261,708
DA:262,1185
DA:263,1185
DA:264,0
DA:265,1185
DA:266,1185
DA:267,3
DA:268,1180
DA:269,1180
DA:270,0
DA:271,1180
DA:272,1180
DA:273,33
DA:274,1147
DA:275,1147
DA:276,0
DA:277,1147
DA:279,1147
DA:280,1147
DA:283,1147
DA:284,1147
DA:285,1088
DA:287,22
DA:288,22
DA:289,22
DA:292,29
DA:293,29
DA:294,29
DA:297,7
DA:298,7
DA:299,7
DA:302,1
DA:303,1
DA:304,1
DA:307,2
DA:308,2
DA:309,2
DA:312,7
DA:313,7
DA:314,7
DA:317,1
DA:318,1
DA:319,1
DA:322,5
DA:323,5
DA:324,5
DA:326,1014
DA:328,59
DA:329,0
DA:332,1073
DA:334,7
DA:335,7
DA:336,7
DA:339,6
DA:340,6
DA:341,6
DA:344,1
DA:345,1
DA:346,1
DA:349,12
DA:350,12
DA:351,12
DA:354,14
DA:355,14
DA:356,14
DA:359,6
DA:360,6
DA:361,6
DA:364,5
DA:365,5
DA:366,5
DA:369,15
DA:370,15
DA:371,15
DA:374,108
DA:375,108
DA:376,108
DA:379,106
DA:380,106
DA:381,106
DA:384,10
DA:385,10
DA:386,10
DA:389,9
DA:390,9
DA:391,9
DA:394,39
DA:395,39
DA:396,39
DA:399,82
DA:400,82
DA:401,82
DA:404,80
DA:405,80
DA:406,80
DA:409,1
DA:410,1
DA:411,1
DA:414,0
DA:415,0
DA:416,0
DA:420,7
DA:421,7
DA:422,7
DA:423,7
DA:424,17
DA:425,17
DA:426,17
DA:427,17
DA:428,17
DA:429,14
DA:430,3
DA:431,3
DA:432,11
DA:433,11
DA:434,7
DA:435,7
DA:436,4
DA:437,4
DA:438,0
DA:439,4
DA:440,3
DA:441,3
DA:442,3
DA:443,3
DA:445,7
DA:446,0
DA:447,0
DA:448,0
DA:449,0
DA:450,0
DA:451,0
DA:452,0
DA:453,0
DA:454,0
DA:455,7
DA:456,7
DA:457,7
DA:458,7
DA:459,7
DA:460,7
DA:461,7
DA:462,7
DA:463,7
DA:464,7
DA:465,7
DA:469,10
DA:470,10
DA:471,10
DA:472,10
DA:473,5078
DA:474,5076
DA:475,5076
DA:476,5076
DA:477,5076
DA:478,5067
DA:479,9
DA:480,9
DA:481,5058
DA:482,5058
DA:483,8
DA:484,8
DA:485,5050
DA:486,5050
DA:487,0
DA:488,5050
DA:489,9
DA:490,9
DA:491,9
DA:493,10
DA:494,2
DA:495,2
DA:496,2
DA:497,2
DA:498,2
DA:499,2
DA:500,2
DA:501,2
DA:502,2
DA:503,8
DA:504,8
DA:505,8
DA:506,8
DA:507,8
DA:508,8
DA:509,8
DA:510,8
DA:511,8
DA:512,8
DA:513,8
DA:515,555
DA:519,555
DA:521,144
DA:522,22
DA:523,5
DA:524,5
DA:525,5
DA:526,12
DA:527,12
DA:528,12
DA:529,12
DA:530,7
DA:531,7
DA:532,7
DA:533,5
DA:536,5
DA:537,1
DA:538,1
DA:539,1
DA:540,1
DA:541,1
DA:542,1
DA:543,1
DA:544,1
DA:545,1
DA:546,4
DA:547,4
DA:548,4
DA:549,4
DA:550,4
DA:551,4
DA:552,4
DA:553,4
DA:554,4
DA:555,4
DA:556,17
DA:557,17
DA:558,3
DA:559,3
DA:560,3
DA:561,7
DA:562,7
DA:563,7
DA:564,7
DA:565,4
DA:566,4
DA:567,4
DA:568,3
DA:571,3
DA:572,1
DA:573,1
DA:574,1
DA:575,1
DA:576,1
DA:577,1
DA:578,1
DA:579,1
DA:580,1
DA:581,2
DA:582,2
DA:583,2
DA:584,2
DA:585,2
DA:586,2
DA:587,2
DA:588,2
DA:589,2
DA:590,2
DA:591,14
DA:592,14
DA:593,4
DA:594,4
DA:595,4
DA:596,17
DA:597,16
DA:598,16
DA:599,16
DA:600,13
DA:601,13
DA:602,13
DA:603,3
DA:606,4
DA:607,1
DA:608,1
DA:609,1
DA:610,1
DA:611,1
DA:612,1
DA:613,1
DA:614,1
DA:615,1
DA:616,3
DA:617,3
DA:618,3
DA:619,3
DA:620,3
DA:621,3
DA:622,3
DA:623,3
DA:624,3
DA:625,3
DA:626,10
DA:627,122
DA:629,132
DA:631,367
DA:632,337
DA:633,337
DA:634,235
DA:635,235
DA:636,102
DA:640,132
DA:641,132
DA:642,102
DA:643,14
DA:644,14
DA:645,14
DA:647,14
DA:648,14
DA:649,32
DA:650,31
DA:651,31
DA:652,31
DA:653,18
DA:654,18
DA:655,13
DA:658,0
DA:659,0
DA:660,88
DA:661,30
DA:663,132
DA:664,101
DA:665,4
DA:666,4
DA:667,2
DA:668,2
DA:669,4
DA:670,9
DA:671,9
DA:672,9
DA:673,5
DA:674,5
DA:675,5
DA:676,4
DA:679,4
DA:680,4
DA:681,4
DA:682,4
DA:683,0
DA:684,97
DA:685,31
DA:686,132
DA:687,132
DA:688,15
DA:690,117
DA:692,132
DA:693,132
DA:694,132
DA:695,132
DA:696,132
DA:697,132
DA:698,132
DA:699,132
DA:700,132
DA:701,411
DA:704,411
DA:705,410
DA:706,410
DA:707,1404
DA:708,1392
DA:709,1392
DA:710,994
DA:711,994
DA:712,398
DA:715,410
DA:717,410
DA:718,410
DA:719,410
DA:720,80
DA:721,80
DA:722,80
DA:723,80
DA:724,80
DA:725,80
DA:726,330
DA:727,5
DA:728,5
DA:729,5
DA:730,5
DA:731,5
DA:732,5
DA:733,325
DA:734,8
DA:735,8
DA:736,8
DA:737,8
DA:738,8
DA:739,8
DA:740,317
DA:741,8
DA:742,8
DA:743,8
DA:744,8
DA:745,8
DA:746,8
DA:747,309
DA:748,7
DA:749,7
DA:750,7
DA:751,7
DA:752,7
DA:753,7
DA:754,302
DA:755,6
DA:756,6
DA:757,6
DA:758,6
DA:759,6
DA:760,6
DA:761,296
DA:762,1
DA:763,1
DA:764,1
DA:765,1
DA:766,1
DA:767,1
DA:769,295
DA:770,295
DA:771,295
DA:772,295
DA:773,295
DA:774,36
DA:775,36
DA:776,36
DA:777,36
DA:778,36
DA:779,36
DA:780,36
DA:782,259
DA:783,259
DA:784,259
DA:785,259
DA:786,259
DA:787,259
DA:788,259
DA:792,410
DA:793,410
DA:794,1
DA:796,1
DA:797,1
DA:798,1
DA:799,1
DA:800,1
DA:801,1
DA:802,1
DA:803,1
DA:804,1
DA:806,76
DA:807,76
DA:808,84
BRDA:85,0,0,141
BRDA:85,0,1,8936
BRDA:87,0,0,141
BRDA:87,0,1,0
BRDA:110,0,0,0
BRDA:110,0,1,8
BRDA:114,0,0,0
BRDA:114,0,1,8
BRDA:146,0,0,410
BRDA:146,0,1,1
BRDA:150,0,0,991
BRDA:150,0,1,401
BRDA:150,1,2,2
BRDA:150,1,3,399
BRDA:156,0,0,2672
BRDA:156,0,1,6
BRDA:157,0,0,2672
BRDA:157,0,1,0
BRDA:160,0,0,785
BRDA:160,0,1,1887
BRDA:172,0,0,1147
BRDA:172,0,1,33
BRDA:176,0,0,616
BRDA:176,0,1,0
BRDA:182,0,0,33
BRDA:182,0,1,583
BRDA:195,0,0,1180
BRDA:195,0,1,5
BRDA:200,0,0,98
BRDA:200,0,1,2
BRDA:201,0,0,5
BRDA:201,0,1,93
BRDA:204,0,0,3
BRDA:204,0,1,2
BRDA:210,0,0,2
BRDA:210,0,1,91
BRDA:215,0,0,91
BRDA:215,0,1,0
BRDA:259,0,0,1893
BRDA:259,0,1,76
BRDA:260,0,0,708
BRDA:260,0,1,1185
BRDA:263,0,0,0
BRDA:263,0,1,1185
BRDA:266,0,0,3
BRDA:266,0,1,1180
BRDA:269,0,0,0
BRDA:269,0,1,1180
BRDA:272,0,0,33
BRDA:272,0,1,1147
BRDA:275,0,0,0
BRDA:275,0,1,1147
BRDA:279,0,0,1147
BRDA:279,0,1,0
BRDA:283,0,0,1147
BRDA:283,0,1,0
BRDA:284,0,0,1088
BRDA:284,0,1,59
BRDA:424,0,0,17
BRDA:424,0,1,0
BRDA:428,0,0,14
BRDA:428,0,1,3
BRDA:429,0,0,3
BRDA:429,0,1,11
BRDA:433,0,0,7
BRDA:433,0,1,4
BRDA:437,0,0,0
BRDA:437,0,1,4
BRDA:445,0,0,0
BRDA:445,0,1,7
BRDA:473,0,0,5076
BRDA:473,0,1,2
BRDA:477,0,0,5067
BRDA:477,0,1,9
BRDA:478,0,0,9
BRDA:478,0,1,5058
BRDA:482,0,0,8
BRDA:482,0,1,5050
BRDA:486,0,0,0
BRDA:486,0,1,5050
BRDA:493,0,0,2
BRDA:493,0,1,8
BRDA:519,0,0,144
BRDA:519,0,1,411
BRDA:521,0,0,22
BRDA:521,0,1,122
BRDA:522,0,0,5
BRDA:522,0,1,17
BRDA:526,0,0,12
BRDA:526,0,1,0
BRDA:529,0,0,7
BRDA:529,0,1,5
BRDA:536,0,0,1
BRDA:536,0,1,4
BRDA:557,0,0,3
BRDA:557,0,1,14
BRDA:561,0,0,7
BRDA:561,0,1,0
BRDA:564,0,0,4
BRDA:564,0,1,3
BRDA:571,0,0,1
BRDA:571,0,1,2
BRDA:592,0,0,4
BRDA:592,0,1,10
BRDA:596,0,0,16
BRDA:596,0,1,1
BRDA:599,0,0,13
BRDA:599,0,1,3
BRDA:606,0,0,1
BRDA:606,0,1,3
BRDA:631,0,0,337
BRDA:631,0,1,30
BRDA:633,0,0,235
BRDA:633,0,1,102
BRDA:641,0,0,102
BRDA:641,0,1,30
BRDA:642,0,0,14
BRDA:642,0,1,88
BRDA:644,0,0,14
BRDA:644,0,1,0
BRDA:645,0,0,14
BRDA:645,0,1,0
BRDA:649,0,0,31
BRDA:649,0,1,1
BRDA:652,0,0,18
BRDA:652,0,1,13
BRDA:663,0,0,101
BRDA:663,0,1,31
BRDA:664,0,0,4
BRDA:664,0,1,97
BRDA:666,0,0,2
BRDA:666,0,1,2
BRDA:670,0,0,9
BRDA:670,0,1,0
BRDA:672,0,0,5
BRDA:672,0,1,4
BRDA:679,0,0,4
BRDA:679,0,1,0
BRDA:687,0,0,15
BRDA:687,0,1,117
BRDA:704,0,0,410
BRDA:704,0,1,1
BRDA:707,0,0,1392
BRDA:707,0,1,12
BRDA:709,0,0,994
BRDA:709,0,1,398
BRDA:773,0,0,36
BRDA:773,0,1,259
BRF:148
BRH:127
LF:598
LH:572
end_of_record
SF:/home/hsin4/myproject/typelang-hm-rs/src/parser.rs
FN:36,_RNvMNtCs2uvitLWOfC0_8typelang6parserNtB2_9InfixSpec8contains
FN:334,_RNvMs_NtCs2uvitLWOfC0_8typelang6parserNtB4_6Parser10parse_atom
FN:172,_RNvMs_NtCs2uvitLWOfC0_8typelang6parserNtB4_6Parser10parse_expr
FN:538,_RNvMs_NtCs2uvitLWOfC0_8typelang6parserNtB4_6Parser10parse_type
FN:196,_RNvMs_NtCs2uvitLWOfC0_8typelang6parserNtB4_6Parser12parse_lambda
FN:211,_RNvMs_NtCs2uvitLWOfC0_8typelang6parserNtB4_6Parser12parse_let_in
FN:123,_RNvMs_NtCs2uvitLWOfC0_8typelang6parserNtB4_6Parser13parse_program
FN:549,_RNvMs_NtCs2uvitLWOfC0_8typelang6parserNtB4_6Parser14parse_type_app
FN:291,_RNvMs_NtCs2uvitLWOfC0_8typelang6parserNtB4_6Parser15parse_infix_non
FN:561,_RNvMs_NtCs2uvitLWOfC0_8typelang6parserNtB4_6Parser15parse_type_atom
FN:528,_RNvMs_NtCs2uvitLWOfC0_8typelang6parserNtB4_6Parser16parse_constraint
FN:262,_RNvMs_NtCs2uvitLWOfC0_8typelang6parserNtB4_6Parser16parse_infix_left
FN:458,_RNvMs_NtCs2uvitLWOfC0_8typelang6parserNtB4_6Parser16parse_sigma_type
FN:250,_RNvMs_NtCs2uvitLWOfC0_8typelang6parserNtB4_6Parser17parse_infix_level
FN:276,_RNvMs_NtCs2uvitLWOfC0_8typelang6parserNtB4_6Parser17parse_infix_right
FN:478,_RNvMs_NtCs2uvitLWOfC0_8typelang6parserNtB4_6Parser17try_parse_context
FN:186,_RNvMs_NtCs2uvitLWOfC0_8typelang6parserNtB4_6Parser19parse_expr_no_annot
FN:159,_RNvMs_NtCs2uvitLWOfC0_8typelang6parserNtB4_6Parser26__expect_semicolon_optional
FN:70,_RNvMs_NtCs2uvitLWOfC0_8typelang6parserNtB4_6Parser3new
FN:88,_RNvMs_NtCs2uvitLWOfC0_8typelang6parserNtB4_6Parser3pop
FN:74,_RNvMs_NtCs2uvitLWOfC0_8typelang6parserNtB4_6Parser4peek
FN:103,_RNvMs_NtCs2uvitLWOfC0_8typelang6parserNtB4_6Parser6accept
FN:78,_RNvMs_NtCs2uvitLWOfC0_8typelang6parserNtB4_6Parser7pop_any
FN:236,_RNvMs_NtCs2uvitLWOfC0_8typelang6parserNtB4_6Parser8parse_if
FN:307,_RNvMs_NtCs2uvitLWOfC0_8typelang6parserNtB4_6Parser9parse_app
FN:84,_RNvMs_NtCs2uvitLWOfC0_8typelang6parserNtB4_6Parser9peek_kind
FN:668,_RNvNtCs2uvitLWOfC0_8typelang6parser10parse_expr
FN:637,_RNvNtCs2uvitLWOfC0_8typelang6parser11decode_char
FN:606,_RNvNtCs2uvitLWOfC0_8typelang6parser13decode_string
FN:663,_RNvNtCs2uvitLWOfC0_8typelang6parser13parse_program
FN:37,_RNCNvMNtCs2uvitLWOfC0_8typelang6parserNtB4_9InfixSpec8contains0B6_
FN:85,_RNCNvMs_NtCs2uvitLWOfC0_8typelang6parserNtB6_6Parser9peek_kind0B8_
FN:669,_RNCNvNtCs2uvitLWOfC0_8typelang6parser10parse_expr0B5_
FN:656,_RNCNvNtCs2uvitLWOfC0_8typelang6parser11decode_char0B5_
FN:664,_RNCNvNtCs2uvitLWOfC0_8typelang6parser13parse_program0B5_
FN:691,_RNvNtNtCsdipHdHAMW8K_8typelang6parser5testss_27decode_string_basic_escapes
FN:699,_RNvNtNtCsdipHdHAMW8K_8typelang6parser5testss_29decode_char_escapes_and_plain
FN:37,_RNCNvMNtCsdipHdHAMW8K_8typelang6parserNtB4_9InfixSpec8contains0B6_
FN:85,_RNCNvMs_NtCsdipHdHAMW8K_8typelang6parserNtB6_6Parser9peek_kind0B8_
FN:669,_RNCNvNtCsdipHdHAMW8K_8typelang6parser10parse_expr0B5_
FN:656,_RNCNvNtCsdipHdHAMW8K_8typelang6parser11decode_char0B5_
FN:664,_RNCNvNtCsdipHdHAMW8K_8typelang6parser13parse_program0B5_
FN:36,_RNvMNtCsdipHdHAMW8K_8typelang6parserNtB2_9InfixSpec8contains
FN:334,_RNvMs_NtCsdipHdHAMW8K_8typelang6parserNtB4_6Parser10parse_atom
FN:172,_RNvMs_NtCsdipHdHAMW8K_8typelang6parserNtB4_6Parser10parse_expr
FN:538,_RNvMs_NtCsdipHdHAMW8K_8typelang6parserNtB4_6Parser10parse_type
FN:196,_RNvMs_NtCsdipHdHAMW8K_8typelang6parserNtB4_6Parser12parse_lambda
FN:211,_RNvMs_NtCsdipHdHAMW8K_8typelang6parserNtB4_6Parser12parse_let_in
FN:123,_RNvMs_NtCsdipHdHAMW8K_8typelang6parserNtB4_6Parser13parse_program
FN:549,_RNvMs_NtCsdipHdHAMW8K_8typelang6parserNtB4_6Parser14parse_type_app
FN:291,_RNvMs_NtCsdipHdHAMW8K_8typelang6parserNtB4_6Parser15parse_infix_non
FN:561,_RNvMs_NtCsdipHdHAMW8K_8typelang6parserNtB4_6Parser15parse_type_atom
FN:528,_RNvMs_NtCsdipHdHAMW8K_8typelang6parserNtB4_6Parser16parse_constraint
FN:262,_RNvMs_NtCsdipHdHAMW8K_8typelang6parserNtB4_6Parser16parse_infix_left
FN:458,_RNvMs_NtCsdipHdHAMW8K_8typelang6parserNtB4_6Parser16parse_sigma_type
FN:250,_RNvMs_NtCsdipHdHAMW8K_8typelang6parserNtB4_6Parser17parse_infix_level
FN:276,_RNvMs_NtCsdipHdHAMW8K_8typelang6parserNtB4_6Parser17parse_infix_right
FN:478,_RNvMs_NtCsdipHdHAMW8K_8typelang6parserNtB4_6Parser17try_parse_context
FN:186,_RNvMs_NtCsdipHdHAMW8K_8typelang6parserNtB4_6Parser19parse_expr_no_annot
FN:159,_RNvMs_NtCsdipHdHAMW8K_8typelang6parserNtB4_6Parser26__expect_semicolon_optional
FN:70,_RNvMs_NtCsdipHdHAMW8K_8typelang6parserNtB4_6Parser3new
FN:88,_RNvMs_NtCsdipHdHAMW8K_8typelang6parserNtB4_6Parser3pop
FN:74,_RNvMs_NtCsdipHdHAMW8K_8typelang6parserNtB4_6Parser4peek
FN:103,_RNvMs_NtCsdipHdHAMW8K_8typelang6parserNtB4_6Parser6accept
FN:78,_RNvMs_NtCsdipHdHAMW8K_8typelang6parserNtB4_6Parser7pop_any
FN:236,_RNvMs_NtCsdipHdHAMW8K_8typelang6parserNtB4_6Parser8parse_if
FN:307,_RNvMs_NtCsdipHdHAMW8K_8typelang6parserNtB4_6Parser9parse_app
FN:84,_RNvMs_NtCsdipHdHAMW8K_8typelang6parserNtB4_6Parser9peek_kind
FN:668,_RNvNtCsdipHdHAMW8K_8typelang6parser10parse_expr
FN:637,_RNvNtCsdipHdHAMW8K_8typelang6parser11decode_char
FN:606,_RNvNtCsdipHdHAMW8K_8typelang6parser13decode_string
FN:663,_RNvNtCsdipHdHAMW8K_8typelang6parser13parse_program
FNDA:1094,_RNvMNtCs2uvitLWOfC0_8typelang6parserNtB2_9InfixSpec8contains
FNDA:338,_RNvMs_NtCs2uvitLWOfC0_8typelang6parserNtB4_6Parser10parse_atom
FNDA:262,_RNvMs_NtCs2uvitLWOfC0_8typelang6parserNtB4_6Parser10parse_expr
FNDA:67,_RNvMs_NtCs2uvitLWOfC0_8typelang6parserNtB4_6Parser10parse_type
FNDA:5,_RNvMs_NtCs2uvitLWOfC0_8typelang6parserNtB4_6Parser12parse_lambda
FNDA:5,_RNvMs_NtCs2uvitLWOfC0_8typelang6parserNtB4_6Parser12parse_let_in
FNDA:10,_RNvMs_NtCs2uvitLWOfC0_8typelang6parserNtB4_6Parser13parse_program
FNDA:67,_RNvMs_NtCs2uvitLWOfC0_8typelang6parserNtB4_6Parser14parse_type_app
FNDA:245,_RNvMs_NtCs2uvitLWOfC0_8typelang6parserNtB4_6Parser15parse_infix_non
FNDA:67,_RNvMs_NtCs2uvitLWOfC0_8typelang6parserNtB4_6Parser15parse_type_atom
FNDA:8,_RNvMs_NtCs2uvitLWOfC0_8typelang6parserNtB4_6Parser16parse_constraint
FNDA:536,_RNvMs_NtCs2uvitLWOfC0_8typelang6parserNtB4_6Parser16parse_infix_left
FNDA:14,_RNvMs_NtCs2uvitLWOfC0_8typelang6parserNtB4_6Parser16parse_sigma_type
FNDA:1389,_RNvMs_NtCs2uvitLWOfC0_8typelang6parserNtB4_6Parser17parse_infix_level
FNDA:304,_RNvMs_NtCs2uvitLWOfC0_8typelang6parserNtB4_6Parser17parse_infix_right
FNDA:10,_RNvMs_NtCs2uvitLWOfC0_8typelang6parserNtB4_6Parser17try_parse_context
FNDA:262,_RNvMs_NtCs2uvitLWOfC0_8typelang6parserNtB4_6Parser19parse_expr_no_annot
FNDA:64,_RNvMs_NtCs2uvitLWOfC0_8typelang6parserNtB4_6Parser26__expect_semicolon_optional
FNDA:52,_RNvMs_NtCs2uvitLWOfC0_8typelang6parserNtB4_6Parser3new
FNDA:351,_RNvMs_NtCs2uvitLWOfC0_8typelang6parserNtB4_6Parser3pop
FNDA:3357,_RNvMs_NtCs2uvitLWOfC0_8typelang6parserNtB4_6Parser4peek
FNDA:564,_RNvMs_NtCs2uvitLWOfC0_8typelang6parserNtB4_6Parser6accept
FNDA:667,_RNvMs_NtCs2uvitLWOfC0_8typelang6parserNtB4_6Parser7pop_any
FNDA:7,_RNvMs_NtCs2uvitLWOfC0_8typelang6parserNtB4_6Parser8parse_if
FNDA:304,_RNvMs_NtCs2uvitLWOfC0_8typelang6parserNtB4_6Parser9parse_app
FNDA:13,_RNvMs_NtCs2uvitLWOfC0_8typelang6parserNtB4_6Parser9peek_kind
FNDA:42,_RNvNtCs2uvitLWOfC0_8typelang6parser10parse_expr
FNDA:5,_RNvNtCs2uvitLWOfC0_8typelang6parser11decode_char
FNDA:6,_RNvNtCs2uvitLWOfC0_8typelang6parser13decode_string
FNDA:10,_RNvNtCs2uvitLWOfC0_8typelang6parser13parse_program
FNDA:3066,_RNCNvMNtCs2uvitLWOfC0_8typelang6parserNtB4_9InfixSpec8contains0B6_
FNDA:13,_RNCNvMs_NtCs2uvitLWOfC0_8typelang6parserNtB6_6Parser9peek_kind0B8_
FNDA:0,_RNCNvNtCs2uvitLWOfC0_8typelang6parser10parse_expr0B5_
FNDA:0,_RNCNvNtCs2uvitLWOfC0_8typelang6parser11decode_char0B5_
FNDA:0,_RNCNvNtCs2uvitLWOfC0_8typelang6parser13parse_program0B5_
FNDA:1,_RNvNtNtCsdipHdHAMW8K_8typelang6parser5testss_27decode_string_basic_escapes
FNDA:1,_RNvNtNtCsdipHdHAMW8K_8typelang6parser5testss_29decode_char_escapes_and_plain
FNDA:135,_RNCNvMNtCsdipHdHAMW8K_8typelang6parserNtB4_9InfixSpec8contains0B6_
FNDA:0,_RNCNvMs_NtCsdipHdHAMW8K_8typelang6parserNtB6_6Parser9peek_kind0B8_
FNDA:0,_RNCNvNtCsdipHdHAMW8K_8typelang6parser10parse_expr0B5_
FNDA:0,_RNCNvNtCsdipHdHAMW8K_8typelang6parser11decode_char0B5_
FNDA:0,_RNCNvNtCsdipHdHAMW8K_8typelang6parser13parse_program0B5_
FNDA:49,_RNvMNtCsdipHdHAMW8K_8typelang6parserNtB2_9InfixSpec8contains
FNDA:15,_RNvMs_NtCsdipHdHAMW8K_8typelang6parserNtB4_6Parser10parse_atom
FNDA:14,_RNvMs_NtCsdipHdHAMW8K_8typelang6parserNtB4_6Parser10parse_expr
FNDA:0,_RNvMs_NtCsdipHdHAMW8K_8typelang6parserNtB4_6Parser10parse_type
FNDA:0,_RNvMs_NtCsdipHdHAMW8K_8typelang6parserNtB4_6Parser12parse_lambda
FNDA:2,_RNvMs_NtCsdipHdHAMW8K_8typelang6parserNtB4_6Parser12parse_let_in
FNDA:5,_RNvMs_NtCsdipHdHAMW8K_8typelang6parserNtB4_6Parser13parse_program
FNDA:0,_RNvMs_NtCsdipHdHAMW8K_8typelang6parserNtB4_6Parser14parse_type_app
FNDA:12,_RNvMs_NtCsdipHdHAMW8K_8typelang6parserNtB4_6Parser15parse_infix_non
FNDA:0,_RNvMs_NtCsdipHdHAMW8K_8typelang6parserNtB4_6Parser15parse_type_atom
FNDA:0,_RNvMs_NtCsdipHdHAMW8K_8typelang6parserNtB4_6Parser16parse_constraint
FNDA:27,_RNvMs_NtCsdipHdHAMW8K_8typelang6parserNtB4_6Parser16parse_infix_left
FNDA:0,_RNvMs_NtCsdipHdHAMW8K_8typelang6parserNtB4_6Parser16parse_sigma_type
FNDA:69,_RNvMs_NtCsdipHdHAMW8K_8typelang6parserNtB4_6Parser17parse_infix_level
FNDA:15,_RNvMs_NtCsdipHdHAMW8K_8typelang6parserNtB4_6Parser17parse_infix_right
FNDA:0,_RNvMs_NtCsdipHdHAMW8K_8typelang6parserNtB4_6Parser17try_parse_context
FNDA:14,_RNvMs_NtCsdipHdHAMW8K_8typelang6parserNtB4_6Parser19parse_expr_no_annot
FNDA:3,_RNvMs_NtCsdipHdHAMW8K_8typelang6parserNtB4_6Parser26__expect_semicolon_optional
FNDA:13,_RNvMs_NtCsdipHdHAMW8K_8typelang6parserNtB4_6Parser3new
FNDA:20,_RNvMs_NtCsdipHdHAMW8K_8typelang6parserNtB4_6Parser3pop
FNDA:149,_RNvMs_NtCsdipHdHAMW8K_8typelang6parserNtB4_6Parser4peek
FNDA:15,_RNvMs_NtCsdipHdHAMW8K_8typelang6parserNtB4_6Parser6accept
FNDA:20,_RNvMs_NtCsdipHdHAMW8K_8typelang6parserNtB4_6Parser7pop_any
FNDA:0,_RNvMs_NtCsdipHdHAMW8K_8typelang6parserNtB4_6Parser8parse_if
FNDA:15,_RNvMs_NtCsdipHdHAMW8K_8typelang6parserNtB4_6Parser9parse_app
FNDA:0,_RNvMs_NtCsdipHdHAMW8K_8typelang6parserNtB4_6Parser9peek_kind
FNDA:8,_RNvNtCsdipHdHAMW8K_8typelang6parser10parse_expr
FNDA:4,_RNvNtCsdipHdHAMW8K_8typelang6parser11decode_char
FNDA:3,_RNvNtCsdipHdHAMW8K_8typelang6parser13decode_string
FNDA:5,_RNvNtCsdipHdHAMW8K_8typelang6parser13parse_program
FNF:37
FNH:34
DA:36,1143
DA:37,3201
DA:38,1143
DA:70,65
DA:71,65
DA:72,65
DA:74,3506
DA:75,3506
DA:76,3506
DA:78,687
DA:79,687
DA:80,687
DA:81,687
DA:82,687
DA:84,13
DA:85,13
DA:86,13
DA:88,371
DA:89,371
DA:90,371
DA:91,7
DA:92,7
DA:93,7
DA:94,7
DA:95,7
DA:96,7
DA:97,7
DA:98,364
DA:99,364
DA:100,364
DA:101,371
DA:103,579
DA:104,579
DA:105,153
DA:106,153
DA:108,426
DA:110,579
DA:123,15
DA:124,15
DA:125,68
DA:126,56
DA:128,56
DA:129,56
DA:130,14
DA:131,14
DA:132,14
DA:133,14
DA:134,0
DA:135,0
DA:136,0
DA:137,42
DA:139,56
DA:140,56
DA:141,54
DA:142,82
DA:143,28
DA:144,28
DA:145,54
DA:146,54
DA:147,53
DA:148,53
DA:149,53
DA:150,53
DA:151,53
DA:152,53
DA:153,53
DA:155,12
DA:156,15
DA:159,67
DA:160,67
DA:161,67
DA:162,67
DA:172,276
DA:173,276
DA:174,268
DA:175,15
DA:176,15
DA:177,15
DA:178,15
DA:179,15
DA:181,253
DA:183,276
DA:186,276
DA:187,276
DA:188,5
DA:189,7
DA:190,7
DA:191,257
DA:193,276
DA:196,5
DA:197,5
DA:198,5
DA:199,11
DA:200,6
DA:201,6
DA:202,5
DA:203,5
DA:204,5
DA:205,5
DA:206,5
DA:207,5
DA:208,5
DA:211,7
DA:212,7
DA:213,7
DA:215,10
DA:216,9
DA:217,14
DA:218,5
DA:219,5
DA:220,9
DA:221,9
DA:222,9
DA:223,9
DA:224,6
DA:225,3
DA:227,6
DA:228,5
DA:229,5
DA:230,5
DA:231,5
DA:232,5
DA:233,7
DA:236,7
DA:237,7
DA:238,7
DA:239,7
DA:240,7
DA:241,7
DA:242,6
DA:243,6
DA:244,6
DA:245,6
DA:246,6
DA:247,6
DA:248,7
DA:250,1458
DA:251,1458
DA:252,319
DA:253,1139
DA:254,1139
DA:255,1139
DA:256,563
DA:257,319
DA:258,257
DA:260,1458
DA:262,563
DA:263,563
DA:264,577
DA:265,24
DA:266,24
DA:267,23
DA:268,23
DA:269,23
DA:270,23
DA:271,23
DA:273,553
DA:274,563
DA:276,319
DA:277,319
DA:278,314
DA:279,20
DA:280,20
DA:281,20
DA:282,20
DA:283,20
DA:284,20
DA:285,20
DA:287,294
DA:289,319
DA:291,257
DA:292,257
DA:293,252
DA:294,18
DA:295,18
DA:296,18
DA:297,18
DA:298,18
DA:299,18
DA:300,18
DA:302,234
DA:304,257
DA:307,319
DA:308,319
DA:322,336
DA:324,22
DA:325,22
DA:326,22
DA:327,22
DA:328,22
DA:330,314
DA:331,319
DA:334,353
DA:335,353
DA:336,353
DA:338,12
DA:339,12
DA:340,12
DA:341,12
DA:342,12
DA:343,12
DA:344,12
DA:345,12
DA:346,12
DA:347,12
DA:350,116
DA:351,116
DA:352,116
DA:353,2
DA:354,1
DA:355,1
DA:356,112
DA:358,116
DA:359,115
DA:360,115
DA:361,2
DA:362,1
DA:363,1
DA:364,111
DA:366,115
DA:368,1
DA:369,1
DA:370,1
DA:371,1
DA:372,1
DA:376,12
DA:377,12
DA:378,12
DA:379,0
DA:380,0
DA:381,0
DA:382,0
DA:383,0
DA:384,0
DA:385,0
DA:389,5
DA:390,5
DA:391,5
DA:394,6
DA:395,6
DA:396,6
DA:399,5
DA:400,5
DA:403,1
DA:404,1
DA:407,85
DA:408,85
DA:411,1
DA:412,1
DA:413,1
DA:414,1
DA:415,1
DA:418,0
DA:419,0
DA:422,102
DA:423,102
DA:424,101
DA:425,9
DA:426,15
DA:427,6
DA:429,9
DA:430,9
DA:432,92
DA:433,91
DA:437,7
DA:438,7
DA:439,7
DA:440,7
DA:441,16
DA:442,9
DA:444,0
DA:445,7
DA:446,6
DA:448,1
DA:449,1
DA:450,1
DA:451,1
DA:452,1
DA:454,353
DA:458,14
DA:460,14
DA:461,14
DA:462,10
DA:463,10
DA:464,7
DA:465,7
DA:466,3
DA:467,3
DA:468,3
DA:469,4
DA:470,14
DA:471,14
DA:472,14
DA:473,14
DA:474,14
DA:475,14
DA:478,10
DA:479,10
DA:481,8
DA:482,2
DA:483,6
DA:484,6
DA:485,6
DA:486,6
DA:487,6
DA:489,0
DA:490,0
DA:494,2
DA:495,2
DA:496,2
DA:497,1
DA:499,1
DA:500,1
DA:501,1
DA:502,1
DA:503,2
DA:504,1
DA:505,1
DA:507,0
DA:508,0
DA:509,1
DA:510,1
DA:512,1
DA:513,0
DA:514,0
DA:515,1
DA:516,1
DA:517,1
DA:519,0
DA:520,0
DA:523,0
DA:525,10
DA:528,8
DA:529,8
DA:530,8
DA:531,8
DA:532,8
DA:533,8
DA:534,8
DA:535,8
DA:538,67
DA:539,67
DA:540,67
DA:541,16
DA:542,16
DA:544,51
DA:546,67
DA:549,67
DA:550,67
DA:552,67
DA:554,0
DA:555,0
DA:557,67
DA:558,67
DA:561,67
DA:562,67
DA:563,67
DA:565,31
DA:566,31
DA:569,28
DA:570,28
DA:573,5
DA:574,5
DA:575,5
DA:576,4
DA:577,14
DA:578,10
DA:580,4
DA:581,4
DA:583,1
DA:584,1
DA:588,3
DA:589,3
DA:590,3
DA:591,3
DA:593,0
DA:594,0
DA:595,0
DA:596,0
DA:597,0
DA:598,0
DA:599,0
DA:601,67
DA:606,9
DA:608,9
DA:609,0
DA:610,9
DA:611,9
DA:612,9
DA:613,9
DA:614,5060
DA:615,5051
DA:617,8
DA:618,0
DA:620,8
DA:621,2
DA:622,0
DA:623,2
DA:624,2
DA:625,0
DA:626,2
DA:627,0
DA:629,5043
DA:630,5043
DA:631,5043
DA:633,9
DA:634,9
DA:637,9
DA:638,9
DA:639,0
DA:640,9
DA:641,9
DA:642,9
DA:643,4
DA:644,2
DA:645,0
DA:646,0
DA:647,0
DA:648,2
DA:649,0
DA:650,0
DA:651,0
DA:654,5
DA:655,5
DA:656,5
DA:658,9
DA:659,9
DA:663,15
DA:664,15
DA:665,15
DA:666,15
DA:668,50
DA:669,50
DA:670,50
DA:671,50
DA:672,44
DA:673,1
DA:674,1
DA:675,1
DA:676,1
DA:677,1
DA:678,1
DA:679,1
DA:680,1
DA:681,43
DA:682,43
DA:683,50
DA:691,1
DA:692,1
DA:693,1
DA:694,1
DA:695,1
DA:699,1
DA:700,1
DA:701,1
DA:702,1
DA:703,1
DA:704,1
BRDA:90,0,0,7
BRDA:90,0,1,364
BRDA:104,0,0,153
BRDA:104,0,1,426
BRDA:125,0,0,56
BRDA:125,0,1,12
BRDA:129,0,0,14
BRDA:129,0,1,42
BRDA:131,0,0,14
BRDA:131,0,1,0
BRDA:142,0,0,28
BRDA:142,0,1,54
BRDA:174,0,0,15
BRDA:174,0,1,253
BRDA:199,0,0,6
BRDA:199,0,1,5
BRDA:217,0,0,5
BRDA:217,0,1,9
BRDA:223,0,0,6
BRDA:223,0,1,3
BRDA:251,0,0,319
BRDA:251,0,1,1139
BRDA:264,0,0,24
BRDA:264,0,1,553
BRDA:278,0,0,20
BRDA:278,0,1,294
BRDA:293,0,0,18
BRDA:293,0,1,234
BRDA:309,0,0,22
BRDA:309,0,1,314
BRDA:424,0,0,9
BRDA:424,0,1,92
BRDA:426,0,0,6
BRDA:426,0,1,9
BRDA:439,0,0,7
BRDA:439,0,1,0
BRDA:441,0,0,9
BRDA:441,0,1,7
BRDA:463,0,0,7
BRDA:463,0,1,3
BRDA:481,0,0,2
BRDA:481,0,1,6
BRDA:486,0,0,6
BRDA:486,0,1,0
BRDA:503,0,0,1
BRDA:503,0,1,1
BRDA:512,0,0,0
BRDA:512,0,1,1
BRDA:516,0,0,1
BRDA:516,0,1,0
BRDA:540,0,0,16
BRDA:540,0,1,51
BRDA:551,0,0,0
BRDA:551,0,1,67
BRDA:575,0,0,4
BRDA:575,0,1,1
BRDA:577,0,0,10
BRDA:577,0,1,4
BRDA:608,0,0,0
BRDA:608,0,1,9
BRDA:608,1,2,0
BRDA:608,1,3,9
BRDA:614,0,0,5051
BRDA:614,0,1,9
BRDA:615,0,0,8
BRDA:615,0,1,5043
BRDA:617,0,0,8
BRDA:617,0,1,0
BRDA:638,0,0,0
BRDA:638,0,1,9
BRDA:638,1,2,0
BRDA:638,1,3,9
BRDA:642,0,0,4
BRDA:642,0,1,5
BRDA:672,0,0,1
BRDA:672,0,1,43
BRF:76
BRH:65
LF:463
LH:412
end_of_record
SF:/home/hsin4/myproject/typelang-hm-rs/src/repl/cmd.rs
FN:310,_RINvNtNtCs2uvitLWOfC0_8typelang4repl3cmd11handle_loadNtB2_4FsIoEB6_
FN:334,_RINvNtNtCs2uvitLWOfC0_8typelang4repl3cmd13handle_reloadNtB2_4FsIoEB6_
FN:62,_RINvNtNtCs2uvitLWOfC0_8typelang4repl3cmd13run_repl_withNtNtB4_11line_editor10LineEditorNtB2_4FsIoNtNtNtCs90rzuWAokgP_3std2io5stdio6StdoutNtB1z_6StderrEB6_
FN:255,_RINvNtNtCs2uvitLWOfC0_8typelang4repl3cmd14handle_commandNtB2_4FsIoEB6_
FN:156,_RINvNtNtCs2uvitLWOfC0_8typelang4repl3cmd17dispatch_messagesNtNtNtCs90rzuWAokgP_3std2io5stdio6StdoutNtBX_6StderrEB6_
FN:321,_RNCINvNtNtCs2uvitLWOfC0_8typelang4repl3cmd11handle_loadNtB4_4FsIoE0B8_
FN:366,_RNCNvNtNtCs2uvitLWOfC0_8typelang4repl3cmd13handle_browse0B7_
FN:375,_RNCNvNtNtCs2uvitLWOfC0_8typelang4repl3cmd13handle_browses_0B7_
FN:544,_RNCNvNtNtCs2uvitLWOfC0_8typelang4repl3cmd21normalize_let_payload0B7_
FN:560,_RNCNvNtNtCs2uvitLWOfC0_8typelang4repl3cmd21normalize_let_payloads_0B7_
FN:586,_RNCNvNtNtCs2uvitLWOfC0_8typelang4repl3cmd26type_string_in_current_env0B7_
FN:607,_RNCNvNtNtCs2uvitLWOfC0_8typelang4repl3cmd29infer_and_generalize_for_repl0B7_
FN:612,_RNCNvNtNtCs2uvitLWOfC0_8typelang4repl3cmd29infer_and_generalize_for_repls_0B7_
FN:250,_RNCNvXs_NtNtCs2uvitLWOfC0_8typelang4repl3cmdNtB6_4FsIoNtB6_6ReplIo14read_to_string0Ba_
FN:294,_RNvNtNtCs2uvitLWOfC0_8typelang4repl3cmd10handle_let
FN:408,_RNvNtNtCs2uvitLWOfC0_8typelang4repl3cmd11handle_eval
FN:393,_RNvNtNtCs2uvitLWOfC0_8typelang4repl3cmd12handle_unset
FN:440,_RNvNtNtCs2uvitLWOfC0_8typelang4repl3cmd13apply_program
FN:360,_RNvNtNtCs2uvitLWOfC0_8typelang4repl3cmd13handle_browse
FN:278,_RNvNtNtCs2uvitLWOfC0_8typelang4repl3cmd14handle_type_of
FN:173,_RNvNtNtCs2uvitLWOfC0_8typelang4repl3cmd16needs_more_input
FN:385,_RNvNtNtCs2uvitLWOfC0_8typelang4repl3cmd18handle_set_default
FN:478,_RNvNtNtCs2uvitLWOfC0_8typelang4repl3cmd18parse_repl_command
FN:540,_RNvNtNtCs2uvitLWOfC0_8typelang4repl3cmd21normalize_let_payload
FN:428,_RNvNtNtCs2uvitLWOfC0_8typelang4repl3cmd26append_signature_summaries
FN:574,_RNvNtNtCs2uvitLWOfC0_8typelang4repl3cmd26type_string_in_current_env
FN:595,_RNvNtNtCs2uvitLWOfC0_8typelang4repl3cmd29infer_and_generalize_for_repl
FN:32,_RNvNtNtCs2uvitLWOfC0_8typelang4repl3cmd8run_repl
FN:249,_RNvXs_NtNtCs2uvitLWOfC0_8typelang4repl3cmdNtB4_4FsIoNtB4_6ReplIo14read_to_string
FN:53,_RNvXNtNtCs2uvitLWOfC0_8typelang4repl3cmdNtNtB4_11line_editor10LineEditorNtB2_14ReplLineSource11add_history
FN:57,_RNvXNtNtCs2uvitLWOfC0_8typelang4repl3cmdNtNtB4_11line_editor10LineEditorNtB2_14ReplLineSource12save_history
FN:49,_RNvXNtNtCs2uvitLWOfC0_8typelang4repl3cmdNtNtB4_11line_editor10LineEditorNtB2_14ReplLineSource9read_line
FN:310,_RINvNtNtCsdipHdHAMW8K_8typelang4repl3cmd11handle_loadNtNtB2_5tests5MapIoEB6_
FN:310,_RINvNtNtCsdipHdHAMW8K_8typelang4repl3cmd11handle_loadNtNtB2_5tests6NoopIoEB6_
FN:334,_RINvNtNtCsdipHdHAMW8K_8typelang4repl3cmd13handle_reloadNtNtB2_5tests5MapIoEB6_
FN:334,_RINvNtNtCsdipHdHAMW8K_8typelang4repl3cmd13handle_reloadNtNtB2_5tests6NoopIoEB6_
FN:62,_RINvNtNtCsdipHdHAMW8K_8typelang4repl3cmd13run_repl_withNtNtB2_5tests18ScriptedLineSourceNtBT_6NoopIoINtNtCsbz1uUYW1aEc_5alloc3vec3VechEB1A_EB6_
FN:255,_RINvNtNtCsdipHdHAMW8K_8typelang4repl3cmd14handle_commandNtNtB2_5tests5MapIoEB6_
FN:255,_RINvNtNtCsdipHdHAMW8K_8typelang4repl3cmd14handle_commandNtNtB2_5tests6NoopIoEB6_
FN:156,_RINvNtNtCsdipHdHAMW8K_8typelang4repl3cmd17dispatch_messagesINtNtCsbz1uUYW1aEc_5alloc3vec3VechEBV_EB6_
FN:321,_RNCINvNtNtCsdipHdHAMW8K_8typelang4repl3cmd11handle_loadNtNtB4_5tests5MapIoE0B8_
FN:321,_RNCINvNtNtCsdipHdHAMW8K_8typelang4repl3cmd11handle_loadNtNtB4_5tests6NoopIoE0B8_
FN:366,_RNCNvNtNtCsdipHdHAMW8K_8typelang4repl3cmd13handle_browse0B7_
FN:375,_RNCNvNtNtCsdipHdHAMW8K_8typelang4repl3cmd13handle_browses_0B7_
FN:544,_RNCNvNtNtCsdipHdHAMW8K_8typelang4repl3cmd21normalize_let_payload0B7_
FN:560,_RNCNvNtNtCsdipHdHAMW8K_8typelang4repl3cmd21normalize_let_payloads_0B7_
FN:586,_RNCNvNtNtCsdipHdHAMW8K_8typelang4repl3cmd26type_string_in_current_env0B7_
FN:607,_RNCNvNtNtCsdipHdHAMW8K_8typelang4repl3cmd29infer_and_generalize_for_repl0B7_
FN:612,_RNCNvNtNtCsdipHdHAMW8K_8typelang4repl3cmd29infer_and_generalize_for_repls_0B7_
FN:294,_RNvNtNtCsdipHdHAMW8K_8typelang4repl3cmd10handle_let
FN:408,_RNvNtNtCsdipHdHAMW8K_8typelang4repl3cmd11handle_eval
FN:393,_RNvNtNtCsdipHdHAMW8K_8typelang4repl3cmd12handle_unset
FN:440,_RNvNtNtCsdipHdHAMW8K_8typelang4repl3cmd13apply_program
FN:360,_RNvNtNtCsdipHdHAMW8K_8typelang4repl3cmd13handle_browse
FN:278,_RNvNtNtCsdipHdHAMW8K_8typelang4repl3cmd14handle_type_of
FN:173,_RNvNtNtCsdipHdHAMW8K_8typelang4repl3cmd16needs_more_input
FN:385,_RNvNtNtCsdipHdHAMW8K_8typelang4repl3cmd18handle_set_default
FN:478,_RNvNtNtCsdipHdHAMW8K_8typelang4repl3cmd18parse_repl_command
FN:540,_RNvNtNtCsdipHdHAMW8K_8typelang4repl3cmd21normalize_let_payload
FN:428,_RNvNtNtCsdipHdHAMW8K_8typelang4repl3cmd26append_signature_summaries
FN:574,_RNvNtNtCsdipHdHAMW8K_8typelang4repl3cmd26type_string_in_current_env
FN:595,_RNvNtNtCsdipHdHAMW8K_8typelang4repl3cmd29infer_and_generalize_for_repl
FN:250,_RNCNvXs_NtNtCsdipHdHAMW8K_8typelang4repl3cmdNtB6_4FsIoNtB6_6ReplIo14read_to_string0Ba_
FN:32,_RNvNtNtCsdipHdHAMW8K_8typelang4repl3cmd8run_repl
FN:53,_RNvXNtNtCsdipHdHAMW8K_8typelang4repl3cmdNtNtB4_11line_editor10LineEditorNtB2_14ReplLineSource11add_history
FN:57,_RNvXNtNtCsdipHdHAMW8K_8typelang4repl3cmdNtNtB4_11line_editor10LineEditorNtB2_14ReplLineSource12save_history
FN:49,_RNvXNtNtCsdipHdHAMW8K_8typelang4repl3cmdNtNtB4_11line_editor10LineEditorNtB2_14ReplLineSource9read_line
FN:249,_RNvXs_NtNtCsdipHdHAMW8K_8typelang4repl3cmdNtB4_4FsIoNtB4_6ReplIo14read_to_string
FN:734,_RNvNtNtNtCsdipHdHAMW8K_8typelang4repl3cmd5tests8mk_state
FN:846,_RNvNtNtNtCsdipHdHAMW8K_8typelang4repl3cmd5tests9first_err
FN:954,_RNvNtNtNtCsdipHdHAMW8K_8typelang4repl3cmd5testss_23handle_eval_error_paths
FN:919,_RNvNtNtNtCsdipHdHAMW8K_8typelang4repl3cmd5testss_25handle_typeof_error_paths
FN:673,_RNvNtNtNtCsdipHdHAMW8K_8typelang4repl3cmd5testss_27parse_repl_command_variants
FN:968,_RNvNtNtNtCsdipHdHAMW8K_8typelang4repl3cmd5testss_30handle_invalid_command_variant
FN:934,_RNvNtNtNtCsdipHdHAMW8K_8typelang4repl3cmd5testss_31handle_let_and_load_error_paths
FN:983,_RNvNtNtNtCsdipHdHAMW8K_8typelang4repl3cmd5testss_31handle_typeof_eval_and_let_flow
FN:908,_RNvNtNtNtCsdipHdHAMW8K_8typelang4repl3cmd5testss_33handle_reload_propagates_io_error
FN:642,_RNvNtNtNtCsdipHdHAMW8K_8typelang4repl3cmd5testss_34needs_more_input_strings_and_chars
FN:713,_RNvNtNtNtCsdipHdHAMW8K_8typelang4repl3cmd5testss_35parse_repl_command_invalid_variants
FN:855,_RNvNtNtNtCsdipHdHAMW8K_8typelang4repl3cmd5testss_36handle_load_success_and_reload_paths
FN:662,_RNvNtNtNtCsdipHdHAMW8K_8typelang4repl3cmd5testss_38normalize_let_payload_single_and_multi
FN:1003,_RNvNtNtNtCsdipHdHAMW8K_8typelang4repl3cmd5testss_38run_repl_with_script_executes_commands
FN:746,_RNvNtNtNtCsdipHdHAMW8K_8typelang4repl3cmd5testss_39handle_browse_and_set_default_and_unset
FN:977,_RNvNtNtNtCsdipHdHAMW8K_8typelang4repl3cmd5testss_39parse_repl_command_empty_string_is_eval
FN:633,_RNvNtNtNtCsdipHdHAMW8K_8typelang4repl3cmd5testss_40needs_more_input_balancing_paren_bracket
FN:654,_RNvNtNtNtCsdipHdHAMW8K_8typelang4repl3cmd5testss_41needs_more_input_commands_do_not_continue
FN:892,_RNvNtNtNtCsdipHdHAMW8K_8typelang4repl3cmd5testss_44handle_load_error_and_reload_without_history
FN:728,_RNvXNtNtNtCsdipHdHAMW8K_8typelang4repl3cmd5testsNtB2_6NoopIoNtB4_6ReplIo14read_to_string
FN:836,_RNvXs1_NtNtNtCsdipHdHAMW8K_8typelang4repl3cmd5testsNtB5_18ScriptedLineSourceNtB7_14ReplLineSource11add_history
FN:840,_RNvXs1_NtNtNtCsdipHdHAMW8K_8typelang4repl3cmd5testsNtB5_18ScriptedLineSourceNtB7_14ReplLineSource12save_history
FN:829,_RNvXs1_NtNtNtCsdipHdHAMW8K_8typelang4repl3cmd5testsNtB5_18ScriptedLineSourceNtB7_14ReplLineSource9read_line
FN:798,_RNvXs_NtNtNtCsdipHdHAMW8K_8typelang4repl3cmd5testsNtB4_5MapIoNtB6_6ReplIo14read_to_string
FN:814,_RINvMs0_NtNtNtCsdipHdHAMW8K_8typelang4repl3cmd5testsNtB6_18ScriptedLineSource3newINtNtCsbz1uUYW1aEc_5alloc3vec3VecNtB6_11ScriptEventEEBc_
FN:847,_RNCNvNtNtNtCsdipHdHAMW8K_8typelang4repl3cmd5tests9first_err0B9_
FN:996,_RNCNvNtNtNtCsdipHdHAMW8K_8typelang4repl3cmd5testss_31handle_typeof_eval_and_let_flow0B9_
FN:865,_RNCNvNtNtNtCsdipHdHAMW8K_8typelang4repl3cmd5testss_36handle_load_success_and_reload_paths0B9_
FN:872,_RNCNvNtNtNtCsdipHdHAMW8K_8typelang4repl3cmd5testss_36handle_load_success_and_reload_pathss0_0B9_
FN:873,_RNCNvNtNtNtCsdipHdHAMW8K_8typelang4repl3cmd5testss_36handle_load_success_and_reload_pathss1_0B9_
FN:887,_RNCNvNtNtNtCsdipHdHAMW8K_8typelang4repl3cmd5testss_36handle_load_success_and_reload_pathss2_0B9_
FN:880,_RNCNvNtNtNtCsdipHdHAMW8K_8typelang4repl3cmd5testss_36handle_load_success_and_reload_pathss_0B9_
FN:1026,_RNCNvNtNtNtCsdipHdHAMW8K_8typelang4repl3cmd5testss_38run_repl_with_script_executes_commands0B9_
FN:760,_RNCNvNtNtNtCsdipHdHAMW8K_8typelang4repl3cmd5testss_39handle_browse_and_set_default_and_unset0B9_
FN:765,_RNCNvNtNtNtCsdipHdHAMW8K_8typelang4repl3cmd5testss_39handle_browse_and_set_default_and_unsets0_0B9_
FN:766,_RNCNvNtNtNtCsdipHdHAMW8K_8typelang4repl3cmd5testss_39handle_browse_and_set_default_and_unsets1_0B9_
FN:772,_RNCNvNtNtNtCsdipHdHAMW8K_8typelang4repl3cmd5testss_39handle_browse_and_set_default_and_unsets_0B9_
FN:897,_RNCNvNtNtNtCsdipHdHAMW8K_8typelang4repl3cmd5testss_44handle_load_error_and_reload_without_history0B9_
FN:903,_RNCNvNtNtNtCsdipHdHAMW8K_8typelang4repl3cmd5testss_44handle_load_error_and_reload_without_historys_0B9_
FN:802,_RNCNvXs_NtNtNtCsdipHdHAMW8K_8typelang4repl3cmd5testsNtB6_5MapIoNtB8_6ReplIo14read_to_string0Bc_
FNDA:0,_RINvNtNtCs2uvitLWOfC0_8typelang4repl3cmd11handle_loadNtB2_4FsIoEB6_
FNDA:0,_RINvNtNtCs2uvitLWOfC0_8typelang4repl3cmd13handle_reloadNtB2_4FsIoEB6_
FNDA:0,_RINvNtNtCs2uvitLWOfC0_8typelang4repl3cmd13run_repl_withNtNtB4_11line_editor10LineEditorNtB2_4FsIoNtNtNtCs90rzuWAokgP_3std2io5stdio6StdoutNtB1z_6StderrEB6_
FNDA:0,_RINvNtNtCs2uvitLWOfC0_8typelang4repl3cmd14handle_commandNtB2_4FsIoEB6_
FNDA:0,_RINvNtNtCs2uvitLWOfC0_8typelang4repl3cmd17dispatch_messagesNtNtNtCs90rzuWAokgP_3std2io5stdio6StdoutNtBX_6StderrEB6_
FNDA:0,_RNCINvNtNtCs2uvitLWOfC0_8typelang4repl3cmd11handle_loadNtB4_4FsIoE0B8_
FNDA:0,_RNCNvNtNtCs2uvitLWOfC0_8typelang4repl3cmd13handle_browse0B7_
FNDA:0,_RNCNvNtNtCs2uvitLWOfC0_8typelang4repl3cmd13handle_browses_0B7_
FNDA:0,_RNCNvNtNtCs2uvitLWOfC0_8typelang4repl3cmd21normalize_let_payload0B7_
FNDA:0,_RNCNvNtNtCs2uvitLWOfC0_8typelang4repl3cmd21normalize_let_payloads_0B7_
FNDA:0,_RNCNvNtNtCs2uvitLWOfC0_8typelang4repl3cmd26type_string_in_current_env0B7_
FNDA:0,_RNCNvNtNtCs2uvitLWOfC0_8typelang4repl3cmd29infer_and_generalize_for_repl0B7_
FNDA:0,_RNCNvNtNtCs2uvitLWOfC0_8typelang4repl3cmd29infer_and_generalize_for_repls_0B7_
FNDA:0,_RNCNvXs_NtNtCs2uvitLWOfC0_8typelang4repl3cmdNtB6_4FsIoNtB6_6ReplIo14read_to_string0Ba_
FNDA:0,_RNvNtNtCs2uvitLWOfC0_8typelang4repl3cmd10handle_let
FNDA:0,_RNvNtNtCs2uvitLWOfC0_8typelang4repl3cmd11handle_eval
FNDA:0,_RNvNtNtCs2uvitLWOfC0_8typelang4repl3cmd12handle_unset
FNDA:0,_RNvNtNtCs2uvitLWOfC0_8typelang4repl3cmd13apply_program
FNDA:0,_RNvNtNtCs2uvitLWOfC0_8typelang4repl3cmd13handle_browse
FNDA:0,_RNvNtNtCs2uvitLWOfC0_8typelang4repl3cmd14handle_type_of
FNDA:0,_RNvNtNtCs2uvitLWOfC0_8typelang4repl3cmd16needs_more_input
FNDA:0,_RNvNtNtCs2uvitLWOfC0_8typelang4repl3cmd18handle_set_default
FNDA:0,_RNvNtNtCs2uvitLWOfC0_8typelang4repl3cmd18parse_repl_command
FNDA:0,_RNvNtNtCs2uvitLWOfC0_8typelang4repl3cmd21normalize_let_payload
FNDA:0,_RNvNtNtCs2uvitLWOfC0_8typelang4repl3cmd26append_signature_summaries
FNDA:0,_RNvNtNtCs2uvitLWOfC0_8typelang4repl3cmd26type_string_in_current_env
FNDA:0,_RNvNtNtCs2uvitLWOfC0_8typelang4repl3cmd29infer_and_generalize_for_repl
FNDA:0,_RNvNtNtCs2uvitLWOfC0_8typelang4repl3cmd8run_repl
FNDA:0,_RNvXs_NtNtCs2uvitLWOfC0_8typelang4repl3cmdNtB4_4FsIoNtB4_6ReplIo14read_to_string
FNDA:0,_RNvXNtNtCs2uvitLWOfC0_8typelang4repl3cmdNtNtB4_11line_editor10LineEditorNtB2_14ReplLineSource11add_history
FNDA:0,_RNvXNtNtCs2uvitLWOfC0_8typelang4repl3cmdNtNtB4_11line_editor10LineEditorNtB2_14ReplLineSource12save_history
FNDA:0,_RNvXNtNtCs2uvitLWOfC0_8typelang4repl3cmdNtNtB4_11line_editor10LineEditorNtB2_14ReplLineSource9read_line
FNDA:3,_RINvNtNtCsdipHdHAMW8K_8typelang4repl3cmd11handle_loadNtNtB2_5tests5MapIoEB6_
FNDA:0,_RINvNtNtCsdipHdHAMW8K_8typelang4repl3cmd11handle_loadNtNtB2_5tests6NoopIoEB6_
FNDA:3,_RINvNtNtCsdipHdHAMW8K_8typelang4repl3cmd13handle_reloadNtNtB2_5tests5MapIoEB6_
FNDA:0,_RINvNtNtCsdipHdHAMW8K_8typelang4repl3cmd13handle_reloadNtNtB2_5tests6NoopIoEB6_
FNDA:1,_RINvNtNtCsdipHdHAMW8K_8typelang4repl3cmd13run_repl_withNtNtB2_5tests18ScriptedLineSourceNtBT_6NoopIoINtNtCsbz1uUYW1aEc_5alloc3vec3VechEB1A_EB6_
FNDA:6,_RINvNtNtCsdipHdHAMW8K_8typelang4repl3cmd14handle_commandNtNtB2_5tests5MapIoEB6_
FNDA:17,_RINvNtNtCsdipHdHAMW8K_8typelang4repl3cmd14handle_commandNtNtB2_5tests6NoopIoEB6_
FNDA:3,_RINvNtNtCsdipHdHAMW8K_8typelang4repl3cmd17dispatch_messagesINtNtCsbz1uUYW1aEc_5alloc3vec3VechEBV_EB6_
FNDA:0,_RNCINvNtNtCsdipHdHAMW8K_8typelang4repl3cmd11handle_loadNtNtB4_5tests5MapIoE0B8_
FNDA:0,_RNCINvNtNtCsdipHdHAMW8K_8typelang4repl3cmd11handle_loadNtNtB4_5tests6NoopIoE0B8_
FNDA:18,_RNCNvNtNtCsdipHdHAMW8K_8typelang4repl3cmd13handle_browse0B7_
FNDA:17,_RNCNvNtNtCsdipHdHAMW8K_8typelang4repl3cmd13handle_browses_0B7_
FNDA:2,_RNCNvNtNtCsdipHdHAMW8K_8typelang4repl3cmd21normalize_let_payload0B7_
FNDA:11,_RNCNvNtNtCsdipHdHAMW8K_8typelang4repl3cmd21normalize_let_payloads_0B7_
FNDA:1,_RNCNvNtNtCsdipHdHAMW8K_8typelang4repl3cmd26type_string_in_current_env0B7_
FNDA:0,_RNCNvNtNtCsdipHdHAMW8K_8typelang4repl3cmd29infer_and_generalize_for_repl0B7_
FNDA:1,_RNCNvNtNtCsdipHdHAMW8K_8typelang4repl3cmd29infer_and_generalize_for_repls_0B7_
FNDA:2,_RNvNtNtCsdipHdHAMW8K_8typelang4repl3cmd10handle_let
FNDA:4,_RNvNtNtCsdipHdHAMW8K_8typelang4repl3cmd11handle_eval
FNDA:2,_RNvNtNtCsdipHdHAMW8K_8typelang4repl3cmd12handle_unset
FNDA:3,_RNvNtNtCsdipHdHAMW8K_8typelang4repl3cmd13apply_program
FNDA:3,_RNvNtNtCsdipHdHAMW8K_8typelang4repl3cmd13handle_browse
FNDA:3,_RNvNtNtCsdipHdHAMW8K_8typelang4repl3cmd14handle_type_of
FNDA:18,_RNvNtNtCsdipHdHAMW8K_8typelang4repl3cmd16needs_more_input
FNDA:2,_RNvNtNtCsdipHdHAMW8K_8typelang4repl3cmd18handle_set_default
FNDA:19,_RNvNtNtCsdipHdHAMW8K_8typelang4repl3cmd18parse_repl_command
FNDA:5,_RNvNtNtCsdipHdHAMW8K_8typelang4repl3cmd21normalize_let_payload
FNDA:1,_RNvNtNtCsdipHdHAMW8K_8typelang4repl3cmd26append_signature_summaries
FNDA:2,_RNvNtNtCsdipHdHAMW8K_8typelang4repl3cmd26type_string_in_current_env
FNDA:3,_RNvNtNtCsdipHdHAMW8K_8typelang4repl3cmd29infer_and_generalize_for_repl
FNDA:0,_RNCNvXs_NtNtCsdipHdHAMW8K_8typelang4repl3cmdNtB6_4FsIoNtB6_6ReplIo14read_to_string0Ba_
FNDA:0,_RNvNtNtCsdipHdHAMW8K_8typelang4repl3cmd8run_repl
FNDA:0,_RNvXNtNtCsdipHdHAMW8K_8typelang4repl3cmdNtNtB4_11line_editor10LineEditorNtB2_14ReplLineSource11add_history
FNDA:0,_RNvXNtNtCsdipHdHAMW8K_8typelang4repl3cmdNtNtB4_11line_editor10LineEditorNtB2_14ReplLineSource12save_history
FNDA:0,_RNvXNtNtCsdipHdHAMW8K_8typelang4repl3cmdNtNtB4_11line_editor10LineEditorNtB2_14ReplLineSource9read_line
FNDA:0,_RNvXs_NtNtCsdipHdHAMW8K_8typelang4repl3cmdNtB4_4FsIoNtB4_6ReplIo14read_to_string
FNDA:9,_RNvNtNtNtCsdipHdHAMW8K_8typelang4repl3cmd5tests8mk_state
FNDA:8,_RNvNtNtNtCsdipHdHAMW8K_8typelang4repl3cmd5tests9first_err
FNDA:1,_RNvNtNtNtCsdipHdHAMW8K_8typelang4repl3cmd5testss_23handle_eval_error_paths
FNDA:1,_RNvNtNtNtCsdipHdHAMW8K_8typelang4repl3cmd5testss_25handle_typeof_error_paths
FNDA:1,_RNvNtNtNtCsdipHdHAMW8K_8typelang4repl3cmd5testss_27parse_repl_command_variants
FNDA:1,_RNvNtNtNtCsdipHdHAMW8K_8typelang4repl3cmd5testss_30handle_invalid_command_variant
FNDA:1,_RNvNtNtNtCsdipHdHAMW8K_8typelang4repl3cmd5testss_31handle_let_and_load_error_paths
FNDA:1,_RNvNtNtNtCsdipHdHAMW8K_8typelang4repl3cmd5testss_31handle_typeof_eval_and_let_flow
FNDA:1,_RNvNtNtNtCsdipHdHAMW8K_8typelang4repl3cmd5testss_33handle_reload_propagates_io_error
FNDA:1,_RNvNtNtNtCsdipHdHAMW8K_8typelang4repl3cmd5testss_34needs_more_input_strings_and_chars
FNDA:1,_RNvNtNtNtCsdipHdHAMW8K_8typelang4repl3cmd5testss_35parse_repl_command_invalid_variants
FNDA:1,_RNvNtNtNtCsdipHdHAMW8K_8typelang4repl3cmd5testss_36handle_load_success_and_reload_paths
FNDA:1,_RNvNtNtNtCsdipHdHAMW8K_8typelang4repl3cmd5testss_38normalize_let_payload_single_and_multi
FNDA:1,_RNvNtNtNtCsdipHdHAMW8K_8typelang4repl3cmd5testss_38run_repl_with_script_executes_commands
FNDA:1,_RNvNtNtNtCsdipHdHAMW8K_8typelang4repl3cmd5testss_39handle_browse_and_set_default_and_unset
FNDA:1,_RNvNtNtNtCsdipHdHAMW8K_8typelang4repl3cmd5testss_39parse_repl_command_empty_string_is_eval
FNDA:1,_RNvNtNtNtCsdipHdHAMW8K_8typelang4repl3cmd5testss_40needs_more_input_balancing_paren_bracket
FNDA:1,_RNvNtNtNtCsdipHdHAMW8K_8typelang4repl3cmd5testss_41needs_more_input_commands_do_not_continue
FNDA:1,_RNvNtNtNtCsdipHdHAMW8K_8typelang4repl3cmd5testss_44handle_load_error_and_reload_without_history
FNDA:0,_RNvXNtNtNtCsdipHdHAMW8K_8typelang4repl3cmd5testsNtB2_6NoopIoNtB4_6ReplIo14read_to_string
FNDA:5,_RNvXs1_NtNtNtCsdipHdHAMW8K_8typelang4repl3cmd5testsNtB5_18ScriptedLineSourceNtB7_14ReplLineSource11add_history
FNDA:1,_RNvXs1_NtNtNtCsdipHdHAMW8K_8typelang4repl3cmd5testsNtB5_18ScriptedLineSourceNtB7_14ReplLineSource12save_history
FNDA:6,_RNvXs1_NtNtNtCsdipHdHAMW8K_8typelang4repl3cmd5testsNtB5_18ScriptedLineSourceNtB7_14ReplLineSource9read_line
FNDA:5,_RNvXs_NtNtNtCsdipHdHAMW8K_8typelang4repl3cmd5testsNtB4_5MapIoNtB6_6ReplIo14read_to_string
FNDA:1,_RINvMs0_NtNtNtCsdipHdHAMW8K_8typelang4repl3cmd5testsNtB6_18ScriptedLineSource3newINtNtCsbz1uUYW1aEc_5alloc3vec3VecNtB6_11ScriptEventEEBc_
FNDA:8,_RNCNvNtNtNtCsdipHdHAMW8K_8typelang4repl3cmd5tests9first_err0B9_
FNDA:1,_RNCNvNtNtNtCsdipHdHAMW8K_8typelang4repl3cmd5testss_31handle_typeof_eval_and_let_flow0B9_
FNDA:2,_RNCNvNtNtNtCsdipHdHAMW8K_8typelang4repl3cmd5testss_36handle_load_success_and_reload_paths0B9_
FNDA:1,_RNCNvNtNtNtCsdipHdHAMW8K_8typelang4repl3cmd5testss_36handle_load_success_and_reload_pathss0_0B9_
FNDA:2,_RNCNvNtNtNtCsdipHdHAMW8K_8typelang4repl3cmd5testss_36handle_load_success_and_reload_pathss1_0B9_
FNDA:1,_RNCNvNtNtNtCsdipHdHAMW8K_8typelang4repl3cmd5testss_36handle_load_success_and_reload_pathss2_0B9_
FNDA:1,_RNCNvNtNtNtCsdipHdHAMW8K_8typelang4repl3cmd5testss_36handle_load_success_and_reload_pathss_0B9_
FNDA:2,_RNCNvNtNtNtCsdipHdHAMW8K_8typelang4repl3cmd5testss_38run_repl_with_script_executes_commands0B9_
FNDA:2,_RNCNvNtNtNtCsdipHdHAMW8K_8typelang4repl3cmd5testss_39handle_browse_and_set_default_and_unset0B9_
FNDA:1,_RNCNvNtNtNtCsdipHdHAMW8K_8typelang4repl3cmd5testss_39handle_browse_and_set_default_and_unsets0_0B9_
FNDA:2,_RNCNvNtNtNtCsdipHdHAMW8K_8typelang4repl3cmd5testss_39handle_browse_and_set_default_and_unsets1_0B9_
FNDA:1,_RNCNvNtNtNtCsdipHdHAMW8K_8typelang4repl3cmd5testss_39handle_browse_and_set_default_and_unsets_0B9_
FNDA:1,_RNCNvNtNtNtCsdipHdHAMW8K_8typelang4repl3cmd5testss_44handle_load_error_and_reload_without_history0B9_
FNDA:1,_RNCNvNtNtNtCsdipHdHAMW8K_8typelang4repl3cmd5testss_44handle_load_error_and_reload_without_historys_0B9_
FNDA:2,_RNCNvXs_NtNtNtCsdipHdHAMW8K_8typelang4repl3cmd5testsNtB6_5MapIoNtB8_6ReplIo14read_to_string0Bc_
FNF:72
FNH:63
DA:32,0
DA:33,0
DA:34,0
DA:35,0
DA:36,0
DA:37,0
DA:38,0
DA:39,0
DA:40,0
DA:49,0
DA:50,0
DA:51,0
DA:53,0
DA:54,0
DA:55,0
DA:57,0
DA:58,0
DA:59,0
DA:62,1
DA:63,1
DA:64,1
DA:65,1
DA:66,1
DA:67,1
DA:68,1
DA:69,1
DA:70,1
DA:71,1
DA:72,1
DA:74,1
DA:75,1
DA:76,1
DA:77,0
DA:78,1
DA:79,1
DA:80,1
DA:81,1
DA:82,1
DA:83,1
DA:86,5
DA:87,5
DA:88,5
DA:89,5
DA:90,6
DA:91,6
DA:92,6
DA:93,6
DA:94,6
DA:95,1
DA:96,1
DA:97,1
DA:98,5
DA:99,5
DA:102,0
DA:103,0
DA:104,0
DA:105,0
DA:106,0
DA:109,0
DA:111,0
DA:112,0
DA:113,0
DA:118,5
DA:119,5
DA:120,0
DA:121,5
DA:123,5
DA:125,5
DA:127,1
DA:128,1
DA:130,1
DA:131,3
DA:132,3
DA:133,3
DA:134,3
DA:135,3
DA:136,3
DA:137,3
DA:138,3
DA:139,3
DA:140,3
DA:141,3
DA:142,3
DA:143,3
DA:144,3
DA:149,1
DA:150,0
DA:151,1
DA:153,1
DA:154,1
DA:156,3
DA:157,3
DA:158,3
DA:159,3
DA:160,3
DA:161,19
DA:162,16
DA:163,15
DA:164,0
DA:165,1
DA:168,3
DA:169,3
DA:173,18
DA:175,18
DA:176,18
DA:177,6
DA:178,12
DA:179,12
DA:180,12
DA:181,12
DA:182,12
DA:183,12
DA:184,61
DA:185,61
DA:186,12
DA:187,1
DA:188,1
DA:189,11
DA:190,11
DA:191,1
DA:192,2
DA:193,8
DA:195,11
DA:196,49
DA:197,49
DA:198,6
DA:199,1
DA:200,1
DA:201,5
DA:202,5
DA:203,1
DA:204,2
DA:205,2
DA:207,5
DA:208,43
DA:209,43
DA:210,4
DA:211,2
DA:212,2
DA:213,1
DA:214,3
DA:215,3
DA:216,28
DA:219,12
DA:220,18
DA:249,0
DA:250,0
DA:251,0
DA:255,23
DA:256,23
DA:257,23
DA:258,23
DA:259,23
DA:261,23
DA:262,3
DA:263,2
DA:264,3
DA:265,3
DA:266,3
DA:267,2
DA:268,2
DA:269,4
DA:270,0
DA:271,1
DA:272,1
DA:273,1
DA:274,1
DA:276,23
DA:278,3
DA:279,3
DA:280,2
DA:281,2
DA:282,2
DA:283,2
DA:284,2
DA:285,2
DA:286,2
DA:287,1
DA:288,1
DA:290,1
DA:292,3
DA:294,2
DA:295,2
DA:296,1
DA:297,1
DA:298,1
DA:299,0
DA:301,1
DA:304,0
DA:306,1
DA:308,2
DA:310,3
DA:311,3
DA:312,2
DA:313,1
DA:314,1
DA:315,1
DA:316,1
DA:317,1
DA:318,1
DA:319,1
DA:320,1
DA:321,1
DA:322,1
DA:323,1
DA:324,1
DA:326,0
DA:328,1
DA:330,1
DA:332,3
DA:334,3
DA:335,3
DA:336,1
DA:337,2
DA:339,2
DA:340,2
DA:341,4
DA:342,2
DA:343,1
DA:344,1
DA:345,1
DA:346,1
DA:347,1
DA:348,1
DA:349,1
DA:350,0
DA:352,0
DA:354,1
DA:357,2
DA:358,3
DA:360,3
DA:361,3
DA:362,3
DA:363,3
DA:364,3
DA:365,3
DA:366,18
DA:367,3
DA:368,3
DA:369,3
DA:370,0
DA:371,3
DA:373,3
DA:374,3
DA:375,17
DA:376,17
DA:377,17
DA:379,0
DA:381,17
DA:382,3
DA:383,3
DA:385,2
DA:386,2
DA:387,2
DA:388,2
DA:389,2
DA:391,2
DA:393,2
DA:394,2
DA:395,2
DA:396,1
DA:397,1
DA:398,2
DA:399,0
DA:400,2
DA:401,2
DA:402,1
DA:404,1
DA:406,2
DA:408,4
DA:409,4
DA:410,3
DA:411,3
DA:412,3
DA:413,3
DA:414,3
DA:415,3
DA:416,3
DA:417,2
DA:418,2
DA:419,2
DA:420,2
DA:422,1
DA:424,1
DA:426,4
DA:428,1
DA:429,2
DA:430,1
DA:431,1
DA:432,1
DA:433,1
DA:434,1
DA:435,1
DA:436,1
DA:438,1
DA:440,3
DA:441,3
DA:442,3
DA:443,3
DA:444,3
DA:445,3
DA:447,3
DA:478,19
DA:479,19
DA:480,19
DA:481,1
DA:482,18
DA:483,18
DA:484,18
DA:485,16
DA:486,14
DA:488,14
DA:489,1
DA:490,13
DA:491,13
DA:492,0
DA:493,13
DA:494,13
DA:495,1
DA:496,12
DA:497,12
DA:498,1
DA:499,11
DA:500,11
DA:501,1
DA:502,10
DA:503,10
DA:504,2
DA:505,2
DA:506,1
DA:508,1
DA:510,8
DA:511,8
DA:512,4
DA:513,4
DA:514,3
DA:515,3
DA:516,1
DA:517,1
DA:519,1
DA:520,1
DA:521,4
DA:522,4
DA:523,1
DA:524,1
DA:525,0
DA:526,1
DA:527,1
DA:528,3
DA:529,3
DA:530,1
DA:531,0
DA:532,1
DA:533,1
DA:534,2
DA:535,2
DA:536,19
DA:540,5
DA:541,5
DA:542,1
DA:543,1
DA:544,2
DA:545,2
DA:546,2
DA:547,0
DA:548,2
DA:549,1
DA:551,1
DA:553,2
DA:554,1
DA:555,1
DA:558,4
DA:559,4
DA:560,11
DA:561,4
DA:562,4
DA:563,4
DA:564,4
DA:565,4
DA:566,2
DA:568,2
DA:571,5
DA:574,2
DA:575,2
DA:576,2
DA:577,2
DA:578,2
DA:579,2
DA:580,2
DA:581,2
DA:582,2
DA:583,1
DA:585,0
DA:586,1
DA:587,0
DA:588,0
DA:591,2
DA:595,3
DA:596,3
DA:597,3
DA:598,3
DA:599,3
DA:600,3
DA:601,3
DA:602,3
DA:603,3
DA:604,1
DA:605,1
DA:606,1
DA:607,1
DA:608,1
DA:611,1
DA:612,2
DA:613,1
DA:614,1
DA:617,3
DA:633,1
DA:634,1
DA:635,1
DA:636,1
DA:637,1
DA:638,1
DA:642,1
DA:643,1
DA:644,1
DA:645,1
DA:646,1
DA:648,1
DA:649,1
DA:650,1
DA:654,1
DA:656,1
DA:657,1
DA:658,1
DA:662,1
DA:663,1
DA:664,1
DA:665,1
DA:668,1
DA:669,1
DA:673,1
DA:674,1
DA:675,1
DA:676,1
DA:677,1
DA:678,1
DA:680,1
DA:681,1
DA:682,0
DA:684,1
DA:685,1
DA:686,1
DA:688,1
DA:689,1
DA:690,1
DA:691,1
DA:693,1
DA:694,1
DA:697,1
DA:698,1
DA:699,1
DA:701,1
DA:702,1
DA:703,0
DA:705,1
DA:706,1
DA:707,1
DA:709,1
DA:713,1
DA:714,1
DA:715,1
DA:716,0
DA:718,1
DA:719,1
DA:720,0
DA:722,1
DA:728,0
DA:729,0
DA:730,0
DA:734,9
DA:735,9
DA:736,9
DA:737,9
DA:738,9
DA:739,9
DA:740,9
DA:741,9
DA:742,9
DA:746,1
DA:747,1
DA:749,1
DA:750,1
DA:751,1
DA:752,1
DA:753,1
DA:754,1
DA:757,1
DA:758,1
DA:759,1
DA:760,2
DA:761,2
DA:762,0
DA:763,2
DA:764,1
DA:765,1
DA:766,2
DA:769,1
DA:770,1
DA:771,1
DA:772,1
DA:773,1
DA:774,0
DA:775,1
DA:776,1
DA:777,1
DA:778,1
DA:781,1
DA:782,1
DA:783,1
DA:786,1
DA:787,1
DA:788,1
DA:790,1
DA:791,1
DA:792,1
DA:798,5
DA:799,5
DA:800,5
DA:801,5
DA:802,5
DA:803,5
DA:814,1
DA:815,1
DA:816,1
DA:817,1
DA:818,1
DA:819,1
DA:820,1
DA:829,6
DA:830,6
DA:831,6
DA:832,0
DA:834,6
DA:836,5
DA:837,5
DA:838,5
DA:840,1
DA:841,1
DA:842,1
DA:843,1
DA:846,8
DA:847,8
DA:848,8
DA:849,0
DA:850,8
DA:851,8
DA:855,1
DA:856,1
DA:857,1
DA:858,1
DA:859,1
DA:860,1
DA:861,1
DA:863,1
DA:864,1
DA:865,2
DA:866,2
DA:867,0
DA:868,2
DA:869,1
DA:870,1
DA:871,1
DA:872,1
DA:873,2
DA:874,1
DA:877,1
DA:878,1
DA:879,1
DA:880,1
DA:881,1
DA:882,0
DA:883,1
DA:884,1
DA:885,1
DA:886,1
DA:887,1
DA:888,1
DA:892,1
DA:893,1
DA:895,1
DA:896,1
DA:897,1
DA:900,1
DA:901,1
DA:902,1
DA:903,1
DA:904,1
DA:908,1
DA:909,1
DA:910,1
DA:911,1
DA:912,1
DA:913,1
DA:914,1
DA:915,1
DA:919,1
DA:920,1
DA:921,1
DA:922,1
DA:923,1
DA:924,0
DA:927,1
DA:928,1
DA:929,1
DA:930,1
DA:934,1
DA:935,1
DA:936,1
DA:937,1
DA:938,1
DA:939,0
DA:942,1
DA:943,1
DA:944,1
DA:945,1
DA:946,1
DA:947,1
DA:948,0
DA:950,1
DA:954,1
DA:955,1
DA:956,1
DA:957,1
DA:958,1
DA:959,0
DA:962,1
DA:963,1
DA:964,1
DA:968,1
DA:969,1
DA:970,1
DA:971,1
DA:972,1
DA:973,1
DA:977,1
DA:978,1
DA:979,1
DA:983,1
DA:984,1
DA:985,1
DA:986,1
DA:988,1
DA:989,1
DA:990,1
DA:991,1
DA:993,1
DA:994,1
DA:995,1
DA:996,1
DA:997,1
DA:998,1
DA:999,1
DA:1003,1
DA:1004,1
DA:1005,1
DA:1006,1
DA:1007,1
DA:1008,1
DA:1009,1
DA:1010,1
DA:1011,1
DA:1013,1
DA:1014,1
DA:1015,1
DA:1016,1
DA:1017,1
DA:1019,1
DA:1020,1
DA:1021,1
DA:1022,1
DA:1023,1
DA:1024,1
DA:1025,1
DA:1026,2
DA:1027,1
DA:1028,1
BRDA:37,0,0,-
BRDA:37,0,1,-
BRDA:94,0,0,1
BRDA:94,0,1,5
BRDA:102,0,0,-
BRDA:102,0,1,-
BRDA:102,1,2,-
BRDA:102,1,3,-
BRDA:119,0,0,0
BRDA:119,0,1,5
BRDA:149,0,0,0
BRDA:149,0,1,1
BRDA:176,0,0,6
BRDA:176,0,1,12
BRDA:185,0,0,12
BRDA:185,0,1,49
BRDA:186,0,0,1
BRDA:186,0,1,11
BRDA:197,0,0,6
BRDA:197,0,1,43
BRDA:198,0,0,1
BRDA:198,0,1,5
BRDA:219,0,0,2
BRDA:219,0,1,10
BRDA:219,1,2,1
BRDA:219,1,3,9
BRDA:219,2,4,1
BRDA:219,2,5,8
BRDA:298,0,0,0
BRDA:298,0,1,1
BRDA:321,0,0,1
BRDA:321,0,1,0
BRDA:335,0,0,1
BRDA:335,0,1,2
BRDA:369,0,0,0
BRDA:369,0,1,3
BRDA:376,0,0,17
BRDA:376,0,1,0
BRDA:389,0,0,2
BRDA:389,0,1,0
BRDA:395,0,0,1
BRDA:395,0,1,1
BRDA:398,0,0,0
BRDA:398,0,1,2
BRDA:401,0,0,1
BRDA:401,0,1,1
BRDA:430,0,0,1
BRDA:430,0,1,0
BRDA:480,0,0,1
BRDA:480,0,1,18
BRDA:488,0,0,1
BRDA:488,0,1,13
BRDA:491,0,0,0
BRDA:491,0,1,13
BRDA:494,0,0,1
BRDA:494,0,1,12
BRDA:497,0,0,1
BRDA:497,0,1,11
BRDA:500,0,0,1
BRDA:500,0,1,10
BRDA:503,0,0,2
BRDA:503,0,1,8
BRDA:505,0,0,1
BRDA:505,0,1,1
BRDA:511,0,0,4
BRDA:511,0,1,4
BRDA:513,0,0,4
BRDA:513,0,1,0
BRDA:513,1,2,3
BRDA:513,1,3,1
BRDA:522,0,0,1
BRDA:522,0,1,3
BRDA:524,0,0,0
BRDA:524,0,1,1
BRDA:529,0,0,1
BRDA:529,0,1,2
BRDA:530,0,0,0
BRDA:530,0,1,1
BRDA:541,0,0,1
BRDA:541,0,1,4
BRDA:546,0,0,0
BRDA:546,0,1,2
BRDA:548,0,0,1
BRDA:548,0,1,1
BRDA:548,1,2,0
BRDA:548,1,3,1
BRDA:560,0,0,7
BRDA:560,0,1,4
BRDA:564,0,0,1
BRDA:564,0,1,3
BRDA:564,1,2,1
BRDA:564,1,3,2
BRDA:565,0,0,2
BRDA:565,0,1,2
BRDA:782,0,0,1
BRDA:782,0,1,0
BRDA:787,0,0,1
BRDA:787,0,1,0
BRDA:791,0,0,1
BRDA:791,0,1,0
BRDA:903,0,0,1
BRDA:903,0,1,0
BRDA:986,0,0,1
BRDA:986,0,1,0
BRDA:996,0,0,1
BRDA:996,0,1,0
BRF:106
BRH:79
LF:710
LH:638
end_of_record
SF:/home/hsin4/myproject/typelang-hm-rs/src/repl/line_editor.rs
FN:44,_RNvMNtNtCs2uvitLWOfC0_8typelang4repl11line_editorNtB2_10LineEditor11add_history
FN:49,_RNvMNtNtCs2uvitLWOfC0_8typelang4repl11line_editorNtB2_10LineEditor12save_history
FN:25,_RNvMNtNtCs2uvitLWOfC0_8typelang4repl11line_editorNtB2_10LineEditor3new
FN:32,_RNvMNtNtCs2uvitLWOfC0_8typelang4repl11line_editorNtB2_10LineEditor9read_line
FN:86,_RNvMs0_NtNtCs2uvitLWOfC0_8typelang4repl11line_editorNtB5_10LineEditor14read_line_unix
FN:284,_RNvMs1_NtNtCs2uvitLWOfC0_8typelang4repl11line_editorNtB5_13EditorSession10move_right
FN:266,_RNvMs1_NtNtCs2uvitLWOfC0_8typelang4repl11line_editorNtB5_13EditorSession11delete_left
FN:260,_RNvMs1_NtNtCs2uvitLWOfC0_8typelang4repl11line_editorNtB5_13EditorSession11insert_char
FN:322,_RNvMs1_NtNtCs2uvitLWOfC0_8typelang4repl11line_editorNtB5_13EditorSession11into_string
FN:308,_RNvMs1_NtNtCs2uvitLWOfC0_8typelang4repl11line_editorNtB5_13EditorSession12history_next
FN:292,_RNvMs1_NtNtCs2uvitLWOfC0_8typelang4repl11line_editorNtB5_13EditorSession12history_prev
FN:326,_RNvMs1_NtNtCs2uvitLWOfC0_8typelang4repl11line_editorNtB5_13EditorSession20reset_history_cursor
FN:238,_RNvMs1_NtNtCs2uvitLWOfC0_8typelang4repl11line_editorNtB5_13EditorSession3new
FN:248,_RNvMs1_NtNtCs2uvitLWOfC0_8typelang4repl11line_editorNtB5_13EditorSession6buffer
FN:252,_RNvMs1_NtNtCs2uvitLWOfC0_8typelang4repl11line_editorNtB5_13EditorSession6cursor
FN:256,_RNvMs1_NtNtCs2uvitLWOfC0_8typelang4repl11line_editorNtB5_13EditorSession8is_empty
FN:276,_RNvMs1_NtNtCs2uvitLWOfC0_8typelang4repl11line_editorNtB5_13EditorSession9move_left
FN:375,_RNvMs2_NtNtCs2uvitLWOfC0_8typelang4repl11line_editorNtB5_7History3add
FN:395,_RNvMs2_NtNtCs2uvitLWOfC0_8typelang4repl11line_editorNtB5_7History3get
FN:390,_RNvMs2_NtNtCs2uvitLWOfC0_8typelang4repl11line_editorNtB5_7History3len
FN:360,_RNvMs2_NtNtCs2uvitLWOfC0_8typelang4repl11line_editorNtB5_7History4load
FN:400,_RNvMs2_NtNtCs2uvitLWOfC0_8typelang4repl11line_editorNtB5_7History4save
FN:435,_RNvMs3_NtNtCs2uvitLWOfC0_8typelang4repl11line_editorNtB5_7RawMode3new
FN:416,_RNvNtNtCs2uvitLWOfC0_8typelang4repl11line_editor12history_path
FN:485,_RNvXs5_NtNtCs2uvitLWOfC0_8typelang4repl11line_editorNtB5_7TermiosNtNtCs7sLWcwAdHqg_4core7default7Default7default
FN:56,_RNvXs_NtNtCs2uvitLWOfC0_8typelang4repl11line_editorNtB4_10LineEditorNtNtCs7sLWcwAdHqg_4core7default7Default7default
FN:456,_RNvXs4_NtNtCs2uvitLWOfC0_8typelang4repl11line_editorNtB5_7RawModeNtNtNtCs7sLWcwAdHqg_4core3ops4drop4Drop4drop
FN:334,_RINvNtNtCs2uvitLWOfC0_8typelang4repl11line_editor12refresh_lineNtNtNtCs90rzuWAokgP_3std2io5stdio6StdoutEB6_
FN:152,_RINvNtNtCs2uvitLWOfC0_8typelang4repl11line_editor14read_utf8_charNtNtNtCs90rzuWAokgP_3std2io5stdio9StdinLockEB6_
FN:173,_RINvNtNtCs2uvitLWOfC0_8typelang4repl11line_editor16interpret_actionNtNtNtCs90rzuWAokgP_3std2io5stdio9StdinLockEB6_
FN:365,_RNCNCNvMs2_NtNtCs2uvitLWOfC0_8typelang4repl11line_editorNtB9_7History4loads_00Bd_
FN:380,_RNCNvMs2_NtNtCs2uvitLWOfC0_8typelang4repl11line_editorNtB7_7History3add0Bb_
FN:396,_RNCNvMs2_NtNtCs2uvitLWOfC0_8typelang4repl11line_editorNtB7_7History3get0Bb_
FN:364,_RNCNvMs2_NtNtCs2uvitLWOfC0_8typelang4repl11line_editorNtB7_7History4load0Bb_
FN:365,_RNCNvMs2_NtNtCs2uvitLWOfC0_8typelang4repl11line_editorNtB7_7History4loads_0Bb_
FN:421,_RNCNvNtNtCs2uvitLWOfC0_8typelang4repl11line_editor12history_path0B7_
FN:423,_RNCNvNtNtCs2uvitLWOfC0_8typelang4repl11line_editor12history_paths_0B7_
FN:583,_RINvNtNtNtCsdipHdHAMW8K_8typelang4repl11line_editor5tests13with_env_lockuNCNvB2_s_31history_save_and_load_roundtrip0EB8_
FN:583,_RINvNtNtNtCsdipHdHAMW8K_8typelang4repl11line_editor5tests13with_env_lockuNCNvB2_s_33history_path_prefers_env_variable0EB8_
FN:585,_RNCINvNtNtNtCsdipHdHAMW8K_8typelang4repl11line_editor5tests13with_env_lockuNCNvB4_s_31history_save_and_load_roundtrip0E0Ba_
FN:585,_RNCINvNtNtNtCsdipHdHAMW8K_8typelang4repl11line_editor5tests13with_env_lockuNCNvB4_s_33history_path_prefers_env_variable0E0Ba_
FN:594,_RNCNvNtNtNtCsdipHdHAMW8K_8typelang4repl11line_editor5testss_31history_save_and_load_roundtrip0B9_
FN:626,_RNCNvNtNtNtCsdipHdHAMW8K_8typelang4repl11line_editor5testss_33history_path_prefers_env_variable0B9_
FN:260,_RNvMs1_NtNtCsdipHdHAMW8K_8typelang4repl11line_editorNtB5_13EditorSession11insert_char
FN:308,_RNvMs1_NtNtCsdipHdHAMW8K_8typelang4repl11line_editorNtB5_13EditorSession12history_next
FN:292,_RNvMs1_NtNtCsdipHdHAMW8K_8typelang4repl11line_editorNtB5_13EditorSession12history_prev
FN:326,_RNvMs1_NtNtCsdipHdHAMW8K_8typelang4repl11line_editorNtB5_13EditorSession20reset_history_cursor
FN:238,_RNvMs1_NtNtCsdipHdHAMW8K_8typelang4repl11line_editorNtB5_13EditorSession3new
FN:248,_RNvMs1_NtNtCsdipHdHAMW8K_8typelang4repl11line_editorNtB5_13EditorSession6buffer
FN:252,_RNvMs1_NtNtCsdipHdHAMW8K_8typelang4repl11line_editorNtB5_13EditorSession6cursor
FN:276,_RNvMs1_NtNtCsdipHdHAMW8K_8typelang4repl11line_editorNtB5_13EditorSession9move_left
FN:375,_RNvMs2_NtNtCsdipHdHAMW8K_8typelang4repl11line_editorNtB5_7History3add
FN:395,_RNvMs2_NtNtCsdipHdHAMW8K_8typelang4repl11line_editorNtB5_7History3get
FN:390,_RNvMs2_NtNtCsdipHdHAMW8K_8typelang4repl11line_editorNtB5_7History3len
FN:360,_RNvMs2_NtNtCsdipHdHAMW8K_8typelang4repl11line_editorNtB5_7History4load
FN:400,_RNvMs2_NtNtCsdipHdHAMW8K_8typelang4repl11line_editorNtB5_7History4save
FN:416,_RNvNtNtCsdipHdHAMW8K_8typelang4repl11line_editor12history_path
FN:334,_RINvNtNtCsdipHdHAMW8K_8typelang4repl11line_editor12refresh_lineINtNtCsbz1uUYW1aEc_5alloc3vec3VechEEB6_
FN:152,_RINvNtNtCsdipHdHAMW8K_8typelang4repl11line_editor14read_utf8_charINtNtNtCs90rzuWAokgP_3std2io6cursor6CursorINtNtCsbz1uUYW1aEc_5alloc3vec3VechEEEB6_
FN:173,_RINvNtNtCsdipHdHAMW8K_8typelang4repl11line_editor16interpret_actionINtNtNtCs90rzuWAokgP_3std2io6cursor6CursorINtNtCsbz1uUYW1aEc_5alloc3vec3VechEEEB6_
FN:365,_RNCNCNvMs2_NtNtCsdipHdHAMW8K_8typelang4repl11line_editorNtB9_7History4loads_00Bd_
FN:380,_RNCNvMs2_NtNtCsdipHdHAMW8K_8typelang4repl11line_editorNtB7_7History3add0Bb_
FN:396,_RNCNvMs2_NtNtCsdipHdHAMW8K_8typelang4repl11line_editorNtB7_7History3get0Bb_
FN:364,_RNCNvMs2_NtNtCsdipHdHAMW8K_8typelang4repl11line_editorNtB7_7History4load0Bb_
FN:365,_RNCNvMs2_NtNtCsdipHdHAMW8K_8typelang4repl11line_editorNtB7_7History4loads_0Bb_
FN:421,_RNCNvNtNtCsdipHdHAMW8K_8typelang4repl11line_editor12history_path0B7_
FN:423,_RNCNvNtNtCsdipHdHAMW8K_8typelang4repl11line_editor12history_paths_0B7_
FN:44,_RNvMNtNtCsdipHdHAMW8K_8typelang4repl11line_editorNtB2_10LineEditor11add_history
FN:49,_RNvMNtNtCsdipHdHAMW8K_8typelang4repl11line_editorNtB2_10LineEditor12save_history
FN:25,_RNvMNtNtCsdipHdHAMW8K_8typelang4repl11line_editorNtB2_10LineEditor3new
FN:32,_RNvMNtNtCsdipHdHAMW8K_8typelang4repl11line_editorNtB2_10LineEditor9read_line
FN:86,_RNvMs0_NtNtCsdipHdHAMW8K_8typelang4repl11line_editorNtB5_10LineEditor14read_line_unix
FN:284,_RNvMs1_NtNtCsdipHdHAMW8K_8typelang4repl11line_editorNtB5_13EditorSession10move_right
FN:266,_RNvMs1_NtNtCsdipHdHAMW8K_8typelang4repl11line_editorNtB5_13EditorSession11delete_left
FN:322,_RNvMs1_NtNtCsdipHdHAMW8K_8typelang4repl11line_editorNtB5_13EditorSession11into_string
FN:256,_RNvMs1_NtNtCsdipHdHAMW8K_8typelang4repl11line_editorNtB5_13EditorSession8is_empty
FN:435,_RNvMs3_NtNtCsdipHdHAMW8K_8typelang4repl11line_editorNtB5_7RawMode3new
FN:456,_RNvXs4_NtNtCsdipHdHAMW8K_8typelang4repl11line_editorNtB5_7RawModeNtNtNtCs7sLWcwAdHqg_4core3ops4drop4Drop4drop
FN:485,_RNvXs5_NtNtCsdipHdHAMW8K_8typelang4repl11line_editorNtB5_7TermiosNtNtCs7sLWcwAdHqg_4core7default7Default7default
FN:56,_RNvXs_NtNtCsdipHdHAMW8K_8typelang4repl11line_editorNtB4_10LineEditorNtNtCs7sLWcwAdHqg_4core7default7Default7default
FN:543,_RNvNtNtNtCsdipHdHAMW8K_8typelang4repl11line_editor5testss_24history_add_deduplicates
FN:572,_RNvNtNtNtCsdipHdHAMW8K_8typelang4repl11line_editor5testss_28history_respects_max_entries
FN:593,_RNvNtNtNtCsdipHdHAMW8K_8typelang4repl11line_editor5testss_31history_save_and_load_roundtrip
FN:647,_RNvNtNtNtCsdipHdHAMW8K_8typelang4repl11line_editor5testss_31refresh_line_repositions_cursor
FN:638,_RNvNtNtNtCsdipHdHAMW8K_8typelang4repl11line_editor5testss_32read_utf8_char_handles_multibyte
FN:557,_RNvNtNtNtCsdipHdHAMW8K_8typelang4repl11line_editor5testss_33history_add_skips_empty_and_trims
FN:625,_RNvNtNtNtCsdipHdHAMW8K_8typelang4repl11line_editor5testss_33history_path_prefers_env_variable
FN:659,_RNvNtNtNtCsdipHdHAMW8K_8typelang4repl11line_editor5testss_39interpret_action_and_session_navigation
FNDA:0,_RNvMNtNtCs2uvitLWOfC0_8typelang4repl11line_editorNtB2_10LineEditor11add_history
FNDA:0,_RNvMNtNtCs2uvitLWOfC0_8typelang4repl11line_editorNtB2_10LineEditor12save_history
FNDA:0,_RNvMNtNtCs2uvitLWOfC0_8typelang4repl11line_editorNtB2_10LineEditor3new
FNDA:0,_RNvMNtNtCs2uvitLWOfC0_8typelang4repl11line_editorNtB2_10LineEditor9read_line
FNDA:0,_RNvMs0_NtNtCs2uvitLWOfC0_8typelang4repl11line_editorNtB5_10LineEditor14read_line_unix
FNDA:0,_RNvMs1_NtNtCs2uvitLWOfC0_8typelang4repl11line_editorNtB5_13EditorSession10move_right
FNDA:0,_RNvMs1_NtNtCs2uvitLWOfC0_8typelang4repl11line_editorNtB5_13EditorSession11delete_left
FNDA:0,_RNvMs1_NtNtCs2uvitLWOfC0_8typelang4repl11line_editorNtB5_13EditorSession11insert_char
FNDA:0,_RNvMs1_NtNtCs2uvitLWOfC0_8typelang4repl11line_editorNtB5_13EditorSession11into_string
FNDA:0,_RNvMs1_NtNtCs2uvitLWOfC0_8typelang4repl11line_editorNtB5_13EditorSession12history_next
FNDA:0,_RNvMs1_NtNtCs2uvitLWOfC0_8typelang4repl11line_editorNtB5_13EditorSession12history_prev
FNDA:0,_RNvMs1_NtNtCs2uvitLWOfC0_8typelang4repl11line_editorNtB5_13EditorSession20reset_history_cursor
FNDA:0,_RNvMs1_NtNtCs2uvitLWOfC0_8typelang4repl11line_editorNtB5_13EditorSession3new
FNDA:0,_RNvMs1_NtNtCs2uvitLWOfC0_8typelang4repl11line_editorNtB5_13EditorSession6buffer
FNDA:0,_RNvMs1_NtNtCs2uvitLWOfC0_8typelang4repl11line_editorNtB5_13EditorSession6cursor
FNDA:0,_RNvMs1_NtNtCs2uvitLWOfC0_8typelang4repl11line_editorNtB5_13EditorSession8is_empty
FNDA:0,_RNvMs1_NtNtCs2uvitLWOfC0_8typelang4repl11line_editorNtB5_13EditorSession9move_left
FNDA:0,_RNvMs2_NtNtCs2uvitLWOfC0_8typelang4repl11line_editorNtB5_7History3add
FNDA:0,_RNvMs2_NtNtCs2uvitLWOfC0_8typelang4repl11line_editorNtB5_7History3get
FNDA:0,_RNvMs2_NtNtCs2uvitLWOfC0_8typelang4repl11line_editorNtB5_7History3len
FNDA:0,_RNvMs2_NtNtCs2uvitLWOfC0_8typelang4repl11line_editorNtB5_7History4load
FNDA:0,_RNvMs2_NtNtCs2uvitLWOfC0_8typelang4repl11line_editorNtB5_7History4save
FNDA:0,_RNvMs3_NtNtCs2uvitLWOfC0_8typelang4repl11line_editorNtB5_7RawMode3new
FNDA:0,_RNvNtNtCs2uvitLWOfC0_8typelang4repl11line_editor12history_path
FNDA:0,_RNvXs5_NtNtCs2uvitLWOfC0_8typelang4repl11line_editorNtB5_7TermiosNtNtCs7sLWcwAdHqg_4core7default7Default7default
FNDA:0,_RNvXs_NtNtCs2uvitLWOfC0_8typelang4repl11line_editorNtB4_10LineEditorNtNtCs7sLWcwAdHqg_4core7default7Default7default
FNDA:0,_RNvXs4_NtNtCs2uvitLWOfC0_8typelang4repl11line_editorNtB5_7RawModeNtNtNtCs7sLWcwAdHqg_4core3ops4drop4Drop4drop
FNDA:0,_RINvNtNtCs2uvitLWOfC0_8typelang4repl11line_editor12refresh_lineNtNtNtCs90rzuWAokgP_3std2io5stdio6StdoutEB6_
FNDA:0,_RINvNtNtCs2uvitLWOfC0_8typelang4repl11line_editor14read_utf8_charNtNtNtCs90rzuWAokgP_3std2io5stdio9StdinLockEB6_
FNDA:0,_RINvNtNtCs2uvitLWOfC0_8typelang4repl11line_editor16interpret_actionNtNtNtCs90rzuWAokgP_3std2io5stdio9StdinLockEB6_
FNDA:0,_RNCNCNvMs2_NtNtCs2uvitLWOfC0_8typelang4repl11line_editorNtB9_7History4loads_00Bd_
FNDA:0,_RNCNvMs2_NtNtCs2uvitLWOfC0_8typelang4repl11line_editorNtB7_7History3add0Bb_
FNDA:0,_RNCNvMs2_NtNtCs2uvitLWOfC0_8typelang4repl11line_editorNtB7_7History3get0Bb_
FNDA:0,_RNCNvMs2_NtNtCs2uvitLWOfC0_8typelang4repl11line_editorNtB7_7History4load0Bb_
FNDA:0,_RNCNvMs2_NtNtCs2uvitLWOfC0_8typelang4repl11line_editorNtB7_7History4loads_0Bb_
FNDA:0,_RNCNvNtNtCs2uvitLWOfC0_8typelang4repl11line_editor12history_path0B7_
FNDA:0,_RNCNvNtNtCs2uvitLWOfC0_8typelang4repl11line_editor12history_paths_0B7_
FNDA:1,_RINvNtNtNtCsdipHdHAMW8K_8typelang4repl11line_editor5tests13with_env_lockuNCNvB2_s_31history_save_and_load_roundtrip0EB8_
FNDA:1,_RINvNtNtNtCsdipHdHAMW8K_8typelang4repl11line_editor5tests13with_env_lockuNCNvB2_s_33history_path_prefers_env_variable0EB8_
FNDA:0,_RNCINvNtNtNtCsdipHdHAMW8K_8typelang4repl11line_editor5tests13with_env_lockuNCNvB4_s_31history_save_and_load_roundtrip0E0Ba_
FNDA:1,_RNCINvNtNtNtCsdipHdHAMW8K_8typelang4repl11line_editor5tests13with_env_lockuNCNvB4_s_33history_path_prefers_env_variable0E0Ba_
FNDA:1,_RNCNvNtNtNtCsdipHdHAMW8K_8typelang4repl11line_editor5testss_31history_save_and_load_roundtrip0B9_
FNDA:1,_RNCNvNtNtNtCsdipHdHAMW8K_8typelang4repl11line_editor5testss_33history_path_prefers_env_variable0B9_
FNDA:3,_RNvMs1_NtNtCsdipHdHAMW8K_8typelang4repl11line_editorNtB5_13EditorSession11insert_char
FNDA:1,_RNvMs1_NtNtCsdipHdHAMW8K_8typelang4repl11line_editorNtB5_13EditorSession12history_next
FNDA:1,_RNvMs1_NtNtCsdipHdHAMW8K_8typelang4repl11line_editorNtB5_13EditorSession12history_prev
FNDA:3,_RNvMs1_NtNtCsdipHdHAMW8K_8typelang4repl11line_editorNtB5_13EditorSession20reset_history_cursor
FNDA:1,_RNvMs1_NtNtCsdipHdHAMW8K_8typelang4repl11line_editorNtB5_13EditorSession3new
FNDA:3,_RNvMs1_NtNtCsdipHdHAMW8K_8typelang4repl11line_editorNtB5_13EditorSession6buffer
FNDA:1,_RNvMs1_NtNtCsdipHdHAMW8K_8typelang4repl11line_editorNtB5_13EditorSession6cursor
FNDA:1,_RNvMs1_NtNtCsdipHdHAMW8K_8typelang4repl11line_editorNtB5_13EditorSession9move_left
FNDA:8,_RNvMs2_NtNtCsdipHdHAMW8K_8typelang4repl11line_editorNtB5_7History3add
FNDA:1,_RNvMs2_NtNtCsdipHdHAMW8K_8typelang4repl11line_editorNtB5_7History3get
FNDA:7,_RNvMs2_NtNtCsdipHdHAMW8K_8typelang4repl11line_editorNtB5_7History3len
FNDA:1,_RNvMs2_NtNtCsdipHdHAMW8K_8typelang4repl11line_editorNtB5_7History4load
FNDA:1,_RNvMs2_NtNtCsdipHdHAMW8K_8typelang4repl11line_editorNtB5_7History4save
FNDA:2,_RNvNtNtCsdipHdHAMW8K_8typelang4repl11line_editor12history_path
FNDA:1,_RINvNtNtCsdipHdHAMW8K_8typelang4repl11line_editor12refresh_lineINtNtCsbz1uUYW1aEc_5alloc3vec3VechEEB6_
FNDA:1,_RINvNtNtCsdipHdHAMW8K_8typelang4repl11line_editor14read_utf8_charINtNtNtCs90rzuWAokgP_3std2io6cursor6CursorINtNtCsbz1uUYW1aEc_5alloc3vec3VechEEEB6_
FNDA:3,_RINvNtNtCsdipHdHAMW8K_8typelang4repl11line_editor16interpret_actionINtNtNtCs90rzuWAokgP_3std2io6cursor6CursorINtNtCsbz1uUYW1aEc_5alloc3vec3VechEEEB6_
FNDA:2,_RNCNCNvMs2_NtNtCsdipHdHAMW8K_8typelang4repl11line_editorNtB9_7History4loads_00Bd_
FNDA:5,_RNCNvMs2_NtNtCsdipHdHAMW8K_8typelang4repl11line_editorNtB7_7History3add0Bb_
FNDA:1,_RNCNvMs2_NtNtCsdipHdHAMW8K_8typelang4repl11line_editorNtB7_7History3get0Bb_
FNDA:1,_RNCNvMs2_NtNtCsdipHdHAMW8K_8typelang4repl11line_editorNtB7_7History4load0Bb_
FNDA:1,_RNCNvMs2_NtNtCsdipHdHAMW8K_8typelang4repl11line_editorNtB7_7History4loads_0Bb_
FNDA:0,_RNCNvNtNtCsdipHdHAMW8K_8typelang4repl11line_editor12history_path0B7_
FNDA:0,_RNCNvNtNtCsdipHdHAMW8K_8typelang4repl11line_editor12history_paths_0B7_
FNDA:0,_RNvMNtNtCsdipHdHAMW8K_8typelang4repl11line_editorNtB2_10LineEditor11add_history
FNDA:0,_RNvMNtNtCsdipHdHAMW8K_8typelang4repl11line_editorNtB2_10LineEditor12save_history
FNDA:0,_RNvMNtNtCsdipHdHAMW8K_8typelang4repl11line_editorNtB2_10LineEditor3new
FNDA:0,_RNvMNtNtCsdipHdHAMW8K_8typelang4repl11line_editorNtB2_10LineEditor9read_line
FNDA:0,_RNvMs0_NtNtCsdipHdHAMW8K_8typelang4repl11line_editorNtB5_10LineEditor14read_line_unix
FNDA:0,_RNvMs1_NtNtCsdipHdHAMW8K_8typelang4repl11line_editorNtB5_13EditorSession10move_right
FNDA:0,_RNvMs1_NtNtCsdipHdHAMW8K_8typelang4repl11line_editorNtB5_13EditorSession11delete_left
FNDA:0,_RNvMs1_NtNtCsdipHdHAMW8K_8typelang4repl11line_editorNtB5_13EditorSession11into_string
FNDA:0,_RNvMs1_NtNtCsdipHdHAMW8K_8typelang4repl11line_editorNtB5_13EditorSession8is_empty
FNDA:0,_RNvMs3_NtNtCsdipHdHAMW8K_8typelang4repl11line_editorNtB5_7RawMode3new
FNDA:0,_RNvXs4_NtNtCsdipHdHAMW8K_8typelang4repl11line_editorNtB5_7RawModeNtNtNtCs7sLWcwAdHqg_4core3ops4drop4Drop4drop
FNDA:0,_RNvXs5_NtNtCsdipHdHAMW8K_8typelang4repl11line_editorNtB5_7TermiosNtNtCs7sLWcwAdHqg_4core7default7Default7default
FNDA:0,_RNvXs_NtNtCsdipHdHAMW8K_8typelang4repl11line_editorNtB4_10LineEditorNtNtCs7sLWcwAdHqg_4core7default7Default7default
FNDA:1,_RNvNtNtNtCsdipHdHAMW8K_8typelang4repl11line_editor5testss_24history_add_deduplicates
FNDA:1,_RNvNtNtNtCsdipHdHAMW8K_8typelang4repl11line_editor5testss_28history_respects_max_entries
FNDA:1,_RNvNtNtNtCsdipHdHAMW8K_8typelang4repl11line_editor5testss_31history_save_and_load_roundtrip
FNDA:1,_RNvNtNtNtCsdipHdHAMW8K_8typelang4repl11line_editor5testss_31refresh_line_repositions_cursor
FNDA:1,_RNvNtNtNtCsdipHdHAMW8K_8typelang4repl11line_editor5testss_32read_utf8_char_handles_multibyte
FNDA:1,_RNvNtNtNtCsdipHdHAMW8K_8typelang4repl11line_editor5testss_33history_add_skips_empty_and_trims
FNDA:1,_RNvNtNtNtCsdipHdHAMW8K_8typelang4repl11line_editor5testss_33history_path_prefers_env_variable
FNDA:1,_RNvNtNtNtCsdipHdHAMW8K_8typelang4repl11line_editor5testss_39interpret_action_and_session_navigation
FNF:49
FNH:34
DA:25,0
DA:26,0
DA:27,0
DA:28,0
DA:29,0
DA:32,0
DA:35,0
DA:41,0
DA:44,0
DA:45,0
DA:46,0
DA:49,0
DA:50,0
DA:51,0
DA:56,0
DA:57,0
DA:58,0
DA:86,0
DA:87,0
DA:88,0
DA:89,0
DA:90,0
DA:92,0
DA:93,0
DA:94,0
DA:96,0
DA:97,0
DA:98,0
DA:99,0
DA:100,0
DA:102,0
DA:103,0
DA:104,0
DA:107,0
DA:108,0
DA:109,0
DA:112,0
DA:113,0
DA:114,0
DA:117,0
DA:118,0
DA:119,0
DA:122,0
DA:123,0
DA:124,0
DA:127,0
DA:128,0
DA:129,0
DA:132,0
DA:133,0
DA:134,0
DA:137,0
DA:138,0
DA:139,0
DA:141,0
DA:142,0
DA:143,0
DA:145,0
DA:148,0
DA:152,1
DA:153,1
DA:154,1
DA:155,1
DA:156,1
DA:157,0
DA:158,0
DA:160,1
DA:161,1
DA:162,2
DA:163,2
DA:165,1
DA:166,1
DA:167,0
DA:169,1
DA:173,3
DA:174,3
DA:175,0
DA:176,0
DA:177,0
DA:178,0
DA:180,3
DA:181,3
DA:182,0
DA:183,3
DA:184,3
DA:185,0
DA:186,3
DA:187,3
DA:188,0
DA:189,3
DA:190,3
DA:191,1
DA:192,1
DA:193,0
DA:194,1
DA:195,0
DA:199,0
DA:200,0
DA:201,0
DA:203,0
DA:206,0
DA:210,3
DA:238,1
DA:239,1
DA:240,1
DA:241,1
DA:242,1
DA:243,1
DA:244,1
DA:245,1
DA:246,1
DA:248,3
DA:249,3
DA:250,3
DA:252,1
DA:253,1
DA:254,1
DA:256,0
DA:257,0
DA:258,0
DA:260,3
DA:261,3
DA:262,3
DA:263,3
DA:264,3
DA:266,0
DA:267,0
DA:268,0
DA:269,0
DA:270,0
DA:271,0
DA:272,0
DA:273,0
DA:274,0
DA:276,1
DA:277,1
DA:278,0
DA:279,1
DA:280,1
DA:281,1
DA:282,1
DA:284,0
DA:285,0
DA:286,0
DA:287,0
DA:288,0
DA:289,0
DA:290,0
DA:292,1
DA:293,1
DA:294,0
DA:295,1
DA:296,1
DA:297,1
DA:298,1
DA:299,1
DA:300,1
DA:301,1
DA:302,1
DA:303,1
DA:304,0
DA:305,0
DA:306,1
DA:308,1
DA:309,1
DA:310,0
DA:311,1
DA:312,1
DA:313,1
DA:314,1
DA:315,1
DA:316,0
DA:317,0
DA:318,1
DA:319,1
DA:320,1
DA:322,0
DA:323,0
DA:324,0
DA:326,3
DA:327,3
DA:328,3
DA:329,3
DA:334,1
DA:335,1
DA:336,1
DA:337,1
DA:338,1
DA:339,1
DA:340,1
DA:341,1
DA:342,1
DA:343,1
DA:344,1
DA:345,1
DA:346,1
DA:347,0
DA:348,1
DA:349,1
DA:360,1
DA:361,1
DA:362,1
DA:363,1
DA:364,1
DA:365,2
DA:366,1
DA:367,1
DA:368,1
DA:369,1
DA:370,1
DA:371,1
DA:372,1
DA:375,8
DA:376,8
DA:377,8
DA:378,1
DA:379,7
DA:380,7
DA:381,2
DA:382,5
DA:383,5
DA:384,1
DA:385,4
DA:386,5
DA:387,8
DA:390,7
DA:391,7
DA:392,7
DA:395,1
DA:396,1
DA:397,1
DA:400,1
DA:401,1
DA:402,0
DA:404,1
DA:405,1
DA:406,0
DA:407,1
DA:408,3
DA:409,2
DA:411,1
DA:412,1
DA:416,2
DA:417,2
DA:418,2
DA:419,0
DA:420,0
DA:421,0
DA:422,0
DA:423,0
DA:424,2
DA:435,0
DA:436,0
DA:437,0
DA:438,0
DA:439,0
DA:440,0
DA:441,0
DA:443,0
DA:444,0
DA:445,0
DA:446,0
DA:447,0
DA:448,0
DA:449,0
DA:450,0
DA:456,0
DA:457,0
DA:458,0
DA:459,0
DA:460,0
DA:461,0
DA:485,0
DA:486,0
DA:487,0
DA:488,0
DA:489,0
DA:490,0
DA:491,0
DA:492,0
DA:493,0
DA:494,0
DA:495,0
DA:496,0
DA:543,1
DA:544,1
DA:545,1
DA:546,1
DA:547,1
DA:548,1
DA:549,1
DA:550,1
DA:551,1
DA:552,1
DA:553,1
DA:557,1
DA:558,1
DA:559,1
DA:560,1
DA:561,1
DA:562,1
DA:563,1
DA:564,1
DA:565,1
DA:566,1
DA:567,1
DA:568,1
DA:572,1
DA:573,1
DA:574,1
DA:575,1
DA:576,1
DA:577,1
DA:578,1
DA:579,1
DA:580,1
DA:583,2
DA:585,2
DA:586,2
DA:587,2
DA:588,2
DA:593,1
DA:594,1
DA:595,1
DA:596,1
DA:597,1
DA:598,1
DA:599,1
DA:600,1
DA:601,1
DA:602,1
DA:603,1
DA:605,1
DA:606,1
DA:607,1
DA:608,1
DA:609,1
DA:610,1
DA:612,1
DA:613,1
DA:614,1
DA:616,1
DA:617,1
DA:619,1
DA:620,1
DA:621,1
DA:625,1
DA:626,1
DA:627,1
DA:628,1
DA:629,1
DA:630,1
DA:631,1
DA:632,1
DA:633,1
DA:634,1
DA:638,1
DA:639,1
DA:640,1
DA:641,1
DA:642,1
DA:647,1
DA:648,1
DA:649,1
DA:650,1
DA:651,1
DA:652,1
DA:653,1
DA:654,1
DA:659,1
DA:662,1
DA:663,1
DA:664,1
DA:665,1
DA:666,1
DA:667,1
DA:668,3
DA:669,3
DA:670,3
DA:673,1
DA:674,1
DA:675,1
DA:676,1
DA:677,1
DA:680,1
DA:681,1
DA:682,1
DA:683,1
DA:684,1
DA:687,1
DA:688,1
DA:689,1
DA:690,1
DA:691,1
DA:692,1
BRDA:97,0,0,-
BRDA:97,0,1,-
BRDA:112,0,0,-
BRDA:112,0,1,-
BRDA:117,0,0,-
BRDA:117,0,1,-
BRDA:122,0,0,-
BRDA:122,0,1,-
BRDA:127,0,0,-
BRDA:127,0,1,-
BRDA:132,0,0,-
BRDA:132,0,1,-
BRDA:137,0,0,-
BRDA:137,0,1,-
BRDA:181,0,0,0
BRDA:181,0,1,3
BRDA:184,0,0,0
BRDA:184,0,1,3
BRDA:187,0,0,0
BRDA:187,0,1,3
BRDA:199,0,0,-
BRDA:199,0,1,-
BRDA:200,0,0,-
BRDA:200,0,1,-
BRDA:267,0,0,-
BRDA:267,0,1,-
BRDA:277,0,0,0
BRDA:277,0,1,1
BRDA:285,0,0,-
BRDA:285,0,1,-
BRDA:293,0,0,0
BRDA:293,0,1,1
BRDA:296,0,0,1
BRDA:296,0,1,0
BRDA:300,0,0,1
BRDA:300,0,1,0
BRDA:309,0,0,0
BRDA:309,0,1,1
BRDA:313,0,0,1
BRDA:313,0,1,0
BRDA:315,0,0,-
BRDA:315,0,1,-
BRDA:345,0,0,1
BRDA:345,0,1,0
BRDA:377,0,0,1
BRDA:377,0,1,7
BRDA:380,0,0,2
BRDA:380,0,1,5
BRDA:383,0,0,1
BRDA:383,0,1,4
BRDA:401,0,0,1
BRDA:401,0,1,0
BRDA:404,0,0,1
BRDA:404,0,1,0
BRDA:417,0,0,2
BRDA:417,0,1,0
BRDA:438,0,0,-
BRDA:438,0,1,-
BRDA:446,0,0,-
BRDA:446,0,1,-
BRF:60
BRH:19
LF:405
LH:257
end_of_record
SF:/home/hsin4/myproject/typelang-hm-rs/src/repl/loader.rs
FN:21,_RNvNtNtCs2uvitLWOfC0_8typelang4repl6loader21load_program_into_env
FN:46,_RNCNvNtNtCs2uvitLWOfC0_8typelang4repl6loader21load_program_into_env0B7_
FN:57,_RNCNvNtNtCs2uvitLWOfC0_8typelang4repl6loader21load_program_into_envs0_0B7_
FN:50,_RNCNvNtNtCs2uvitLWOfC0_8typelang4repl6loader21load_program_into_envs_0B7_
FN:46,_RNCNvNtNtCsdipHdHAMW8K_8typelang4repl6loader21load_program_into_env0B7_
FN:57,_RNCNvNtNtCsdipHdHAMW8K_8typelang4repl6loader21load_program_into_envs0_0B7_
FN:50,_RNCNvNtNtCsdipHdHAMW8K_8typelang4repl6loader21load_program_into_envs_0B7_
FN:21,_RNvNtNtCsdipHdHAMW8K_8typelang4repl6loader21load_program_into_env
FNDA:6,_RNvNtNtCs2uvitLWOfC0_8typelang4repl6loader21load_program_into_env
FNDA:0,_RNCNvNtNtCs2uvitLWOfC0_8typelang4repl6loader21load_program_into_env0B7_
FNDA:1,_RNCNvNtNtCs2uvitLWOfC0_8typelang4repl6loader21load_program_into_envs0_0B7_
FNDA:0,_RNCNvNtNtCs2uvitLWOfC0_8typelang4repl6loader21load_program_into_envs_0B7_
FNDA:0,_RNCNvNtNtCsdipHdHAMW8K_8typelang4repl6loader21load_program_into_env0B7_
FNDA:0,_RNCNvNtNtCsdipHdHAMW8K_8typelang4repl6loader21load_program_into_envs0_0B7_
FNDA:0,_RNCNvNtNtCsdipHdHAMW8K_8typelang4repl6loader21load_program_into_envs_0B7_
FNDA:3,_RNvNtNtCsdipHdHAMW8K_8typelang4repl6loader21load_program_into_env
FNF:4
FNH:2
DA:21,9
DA:22,9
DA:23,9
DA:24,9
DA:25,9
DA:26,9
DA:27,9
DA:28,9
DA:29,9
DA:30,58
DA:31,50
DA:32,31
DA:34,19
DA:35,19
DA:36,19
DA:37,19
DA:39,50
DA:40,50
DA:41,50
DA:42,49
DA:43,49
DA:44,12
DA:45,12
DA:46,12
DA:47,37
DA:48,49
DA:49,49
DA:50,49
DA:51,49
DA:52,49
DA:53,49
DA:56,0
DA:57,1
DA:58,0
DA:59,0
DA:60,0
DA:61,0
DA:65,8
DA:66,8
DA:67,8
DA:68,9
BRDA:31,0,0,31
BRDA:31,0,1,19
BRDA:40,0,0,38
BRDA:40,0,1,12
BRDA:43,0,0,12
BRDA:43,0,1,37
BRF:6
BRH:6
LF:44
LH:37
end_of_record
SF:/home/hsin4/myproject/typelang-hm-rs/src/repl/pipeline.rs
FN:19,_RNvNtNtCs2uvitLWOfC0_8typelang4repl8pipeline15infer_qual_type
FN:73,_RNvNtNtCs2uvitLWOfC0_8typelang4repl8pipeline22eval_expr_for_pipeline
FN:44,_RNvNtNtCs2uvitLWOfC0_8typelang4repl8pipeline24fallback_qual_from_value
FN:52,_RNvNtNtCs2uvitLWOfC0_8typelang4repl8pipeline24fallback_type_from_value
FN:38,_RNvNtNtCs2uvitLWOfC0_8typelang4repl8pipeline26fallback_scheme_from_value
FN:19,_RNvNtNtCsdipHdHAMW8K_8typelang4repl8pipeline15infer_qual_type
FN:73,_RNvNtNtCsdipHdHAMW8K_8typelang4repl8pipeline22eval_expr_for_pipeline
FN:44,_RNvNtNtCsdipHdHAMW8K_8typelang4repl8pipeline24fallback_qual_from_value
FN:52,_RNvNtNtCsdipHdHAMW8K_8typelang4repl8pipeline24fallback_type_from_value
FN:38,_RNvNtNtCsdipHdHAMW8K_8typelang4repl8pipeline26fallback_scheme_from_value
FNDA:47,_RNvNtNtCs2uvitLWOfC0_8typelang4repl8pipeline15infer_qual_type
FNDA:47,_RNvNtNtCs2uvitLWOfC0_8typelang4repl8pipeline22eval_expr_for_pipeline
FNDA:0,_RNvNtNtCs2uvitLWOfC0_8typelang4repl8pipeline24fallback_qual_from_value
FNDA:0,_RNvNtNtCs2uvitLWOfC0_8typelang4repl8pipeline24fallback_type_from_value
FNDA:0,_RNvNtNtCs2uvitLWOfC0_8typelang4repl8pipeline26fallback_scheme_from_value
FNDA:8,_RNvNtNtCsdipHdHAMW8K_8typelang4repl8pipeline15infer_qual_type
FNDA:7,_RNvNtNtCsdipHdHAMW8K_8typelang4repl8pipeline22eval_expr_for_pipeline
FNDA:0,_RNvNtNtCsdipHdHAMW8K_8typelang4repl8pipeline24fallback_qual_from_value
FNDA:1,_RNvNtNtCsdipHdHAMW8K_8typelang4repl8pipeline24fallback_type_from_value
FNDA:1,_RNvNtNtCsdipHdHAMW8K_8typelang4repl8pipeline26fallback_scheme_from_value
FNF:5
FNH:4
DA:19,55
DA:20,55
DA:21,55
DA:22,55
DA:23,55
DA:24,55
DA:25,55
DA:26,55
DA:27,55
DA:28,55
DA:29,55
DA:30,51
DA:31,51
DA:32,30
DA:33,30
DA:34,51
DA:35,55
DA:38,1
DA:39,1
DA:40,1
DA:41,1
DA:44,0
DA:45,0
DA:46,0
DA:47,0
DA:48,0
DA:49,0
DA:52,1
DA:53,1
DA:54,1
DA:55,0
DA:56,0
DA:57,0
DA:58,0
DA:59,0
DA:60,0
DA:61,0
DA:62,0
DA:63,0
DA:64,0
DA:65,0
DA:67,0
DA:70,1
DA:73,54
DA:74,54
DA:75,54
DA:76,54
DA:77,54
DA:78,54
BRDA:31,0,0,30
BRDA:31,0,1,21
BRF:2
BRH:2
LF:49
LH:31
end_of_record
SF:/home/hsin4/myproject/typelang-hm-rs/src/repl/printer.rs
FN:45,_RINvNtNtCs2uvitLWOfC0_8typelang4repl7printer11render_helpNtNtNtCs90rzuWAokgP_3std2io5stdio6StdoutEB6_
FN:50,_RINvNtNtCs2uvitLWOfC0_8typelang4repl7printer11write_valueNtNtNtCs90rzuWAokgP_3std2io5stdio6StdoutEB6_
FN:66,_RNvNtNtNtCsdipHdHAMW8K_8typelang4repl7printer5tests15write_to_string
FN:74,_RNvNtNtNtCsdipHdHAMW8K_8typelang4repl7printer5testss_33render_help_outputs_expected_text
FN:83,_RNvNtNtNtCsdipHdHAMW8K_8typelang4repl7printer5testss_44write_value_variants_render_expected_strings
FN:33,_RNvNtNtCsdipHdHAMW8K_8typelang4repl7printer10print_help
FN:39,_RNvNtNtCsdipHdHAMW8K_8typelang4repl7printer11print_value
FN:45,_RINvNtNtCsdipHdHAMW8K_8typelang4repl7printer11render_helpINtNtCsbz1uUYW1aEc_5alloc3vec3VechEEB6_
FN:50,_RINvNtNtCsdipHdHAMW8K_8typelang4repl7printer11write_valueINtNtCsbz1uUYW1aEc_5alloc3vec3VechEEB6_
FNDA:0,_RINvNtNtCs2uvitLWOfC0_8typelang4repl7printer11render_helpNtNtNtCs90rzuWAokgP_3std2io5stdio6StdoutEB6_
FNDA:0,_RINvNtNtCs2uvitLWOfC0_8typelang4repl7printer11write_valueNtNtNtCs90rzuWAokgP_3std2io5stdio6StdoutEB6_
FNDA:8,_RNvNtNtNtCsdipHdHAMW8K_8typelang4repl7printer5tests15write_to_string
FNDA:1,_RNvNtNtNtCsdipHdHAMW8K_8typelang4repl7printer5testss_33render_help_outputs_expected_text
FNDA:1,_RNvNtNtNtCsdipHdHAMW8K_8typelang4repl7printer5testss_44write_value_variants_render_expected_strings
FNDA:0,_RNvNtNtCsdipHdHAMW8K_8typelang4repl7printer10print_help
FNDA:0,_RNvNtNtCsdipHdHAMW8K_8typelang4repl7printer11print_value
FNDA:2,_RINvNtNtCsdipHdHAMW8K_8typelang4repl7printer11render_helpINtNtCsbz1uUYW1aEc_5alloc3vec3VechEEB6_
FNDA:9,_RINvNtNtCsdipHdHAMW8K_8typelang4repl7printer11write_valueINtNtCsbz1uUYW1aEc_5alloc3vec3VechEEB6_
FNF:7
FNH:5
DA:33,0
DA:34,0
DA:35,0
DA:36,0
DA:39,0
DA:40,0
DA:41,0
DA:42,0
DA:45,2
DA:46,2
DA:47,2
DA:50,9
DA:51,9
DA:52,1
DA:53,2
DA:54,1
DA:55,2
DA:56,1
DA:57,2
DA:59,9
DA:66,8
DA:67,8
DA:68,8
DA:69,8
DA:70,8
DA:74,1
DA:75,1
DA:76,1
DA:77,1
DA:78,1
DA:79,1
DA:83,1
DA:84,1
DA:85,1
DA:87,1
DA:88,1
DA:90,1
DA:91,1
DA:93,1
DA:94,1
DA:96,1
DA:97,1
DA:99,1
DA:100,1
DA:102,1
DA:103,1
DA:105,1
DA:106,1
DA:107,1
BRDA:55,0,0,1
BRDA:55,0,1,1
BRF:2
BRH:2
LF:49
LH:41
end_of_record
SF:/home/hsin4/myproject/typelang-hm-rs/src/repl/util.rs
FN:10,_RNvNtNtCs2uvitLWOfC0_8typelang4repl4util14normalize_expr
FN:13,_RNvNvNtNtCs2uvitLWOfC0_8typelang4repl4util14normalize_expr7neg_int
FN:55,_RNCNvNtNtCs2uvitLWOfC0_8typelang4repl4util14normalize_expr0B7_
FN:10,_RNvNtNtCsdipHdHAMW8K_8typelang4repl4util14normalize_expr
FN:13,_RNvNvNtNtCsdipHdHAMW8K_8typelang4repl4util14normalize_expr7neg_int
FN:146,_RNvNtNtNtCsdipHdHAMW8K_8typelang4repl4util5testss_34normalize_recurse_into_collections
FN:125,_RNvNtNtNtCsdipHdHAMW8K_8typelang4repl4util5testss_35normalize_keeps_other_ops_untouched
FN:92,_RNvNtNtNtCsdipHdHAMW8K_8typelang4repl4util5testss_60normalize_pow_with_negative_int_exponent_changes_to_starstar
FN:55,_RNCNvNtNtCsdipHdHAMW8K_8typelang4repl4util14normalize_expr0B7_
FNDA:201,_RNvNtNtCs2uvitLWOfC0_8typelang4repl4util14normalize_expr
FNDA:3,_RNvNvNtNtCs2uvitLWOfC0_8typelang4repl4util14normalize_expr7neg_int
FNDA:5,_RNCNvNtNtCs2uvitLWOfC0_8typelang4repl4util14normalize_expr0B7_
FNDA:26,_RNvNtNtCsdipHdHAMW8K_8typelang4repl4util14normalize_expr
FNDA:2,_RNvNvNtNtCsdipHdHAMW8K_8typelang4repl4util14normalize_expr7neg_int
FNDA:1,_RNvNtNtNtCsdipHdHAMW8K_8typelang4repl4util5testss_34normalize_recurse_into_collections
FNDA:1,_RNvNtNtNtCsdipHdHAMW8K_8typelang4repl4util5testss_35normalize_keeps_other_ops_untouched
FNDA:1,_RNvNtNtNtCsdipHdHAMW8K_8typelang4repl4util5testss_60normalize_pow_with_negative_int_exponent_changes_to_starstar
FNDA:0,_RNCNvNtNtCsdipHdHAMW8K_8typelang4repl4util14normalize_expr0B7_
FNF:6
FNH:6
DA:10,227
DA:13,5
DA:14,5
DA:15,4
DA:16,4
DA:17,4
DA:18,4
DA:19,0
DA:20,0
DA:21,0
DA:22,1
DA:23,1
DA:24,5
DA:25,227
DA:26,36
DA:27,36
DA:28,36
DA:29,36
DA:30,5
DA:31,4
DA:32,4
DA:33,4
DA:34,4
DA:35,4
DA:36,1
DA:37,31
DA:38,32
DA:39,32
DA:40,32
DA:41,32
DA:42,32
DA:44,13
DA:45,13
DA:46,13
DA:47,13
DA:48,21
DA:49,21
DA:50,21
DA:51,21
DA:52,3
DA:53,3
DA:54,3
DA:55,5
DA:56,3
DA:57,3
DA:58,3
DA:59,3
DA:60,3
DA:63,3
DA:64,3
DA:65,3
DA:66,3
DA:67,3
DA:68,3
DA:69,3
DA:70,3
DA:71,12
DA:72,12
DA:73,12
DA:74,12
DA:75,3
DA:76,3
DA:77,3
DA:78,4
DA:79,4
DA:80,4
DA:81,132
DA:83,227
DA:92,1
DA:93,1
DA:94,1
DA:95,1
DA:96,1
DA:97,1
DA:98,1
DA:99,1
DA:100,1
DA:101,1
DA:102,1
DA:103,1
DA:104,1
DA:105,1
DA:106,1
DA:107,1
DA:108,1
DA:109,1
DA:110,1
DA:111,1
DA:112,1
DA:113,1
DA:114,1
DA:115,1
DA:116,1
DA:119,0
DA:121,1
DA:125,1
DA:126,1
DA:127,1
DA:128,1
DA:129,1
DA:130,1
DA:131,1
DA:132,1
DA:133,1
DA:134,1
DA:135,1
DA:136,1
DA:137,1
DA:138,1
DA:139,1
DA:140,0
DA:142,1
DA:146,1
DA:148,1
DA:149,1
DA:150,1
DA:151,1
DA:152,1
DA:153,1
DA:154,1
DA:155,1
DA:156,1
DA:157,1
DA:158,1
DA:159,1
DA:160,1
DA:161,1
DA:162,1
DA:163,1
DA:164,1
DA:165,1
DA:166,1
DA:167,1
DA:168,1
DA:169,1
DA:170,1
DA:171,1
DA:172,1
DA:173,0
DA:174,0
DA:175,0
DA:176,1
BRDA:14,0,0,4
BRDA:14,0,1,1
BRDA:15,0,0,4
BRDA:15,0,1,0
BRDA:16,0,0,4
BRDA:16,0,1,0
BRDA:17,0,0,4
BRDA:17,0,1,0
BRDA:29,0,0,5
BRDA:29,0,1,31
BRDA:30,0,0,4
BRDA:30,0,1,1
BRDA:116,0,0,1
BRDA:116,0,1,0
BRDA:169,0,0,1
BRDA:169,0,1,0
BRDA:170,0,0,1
BRDA:170,0,1,0
BRF:18
BRH:12
LF:143
LH:135
end_of_record
SF:/home/hsin4/myproject/typelang-hm-rs/src/typesys.rs
FN:199,_RNvMs2_NtCs2uvitLWOfC0_8typelang7typesysNtB5_7TypeEnv3new
FN:215,_RNvMs2_NtCs2uvitLWOfC0_8typelang7typesysNtB5_7TypeEnv6lookup
FN:205,_RNvMs2_NtCs2uvitLWOfC0_8typelang7typesysNtB5_7TypeEnv9clone_env
FN:257,_RNvMs4_NtCs2uvitLWOfC0_8typelang7typesysNtB5_10TVarSupply3new
FN:261,_RNvMs4_NtCs2uvitLWOfC0_8typelang7typesysNtB5_10TVarSupply5fresh
FN:395,_RNvMs7_NtCs2uvitLWOfC0_8typelang7typesysNtB5_8ClassEnv11entails_one
FN:429,_RNvMs7_NtCs2uvitLWOfC0_8typelang7typesysNtB5_8ClassEnv12has_instance
FN:391,_RNvMs7_NtCs2uvitLWOfC0_8typelang7typesysNtB5_8ClassEnv7entails
FN:277,_RNvNtCs2uvitLWOfC0_8typelang7typesys10generalize
FN:288,_RNvNtCs2uvitLWOfC0_8typelang7typesys11instantiate
FN:491,_RNvNtCs2uvitLWOfC0_8typelang7typesys11key_of_type
FN:562,_RNvNtCs2uvitLWOfC0_8typelang7typesys11pretty_qual
FN:528,_RNvNtCs2uvitLWOfC0_8typelang7typesys14pp_constraints
FN:507,_RNvNtCs2uvitLWOfC0_8typelang7typesys21normalize_constraints
FN:585,_RNvNtCs2uvitLWOfC0_8typelang7typesys23apply_defaulting_simple
FN:520,_RNvNtCs2uvitLWOfC0_8typelang7typesys25constraints_with_typevars
FN:542,_RNvNtCs2uvitLWOfC0_8typelang7typesys28constraints_relevant_to_type
FN:100,_RNvNtCs2uvitLWOfC0_8typelang7typesys3ftv
FN:356,_RNvNtCs2uvitLWOfC0_8typelang7typesys4bind
FN:313,_RNvNtCs2uvitLWOfC0_8typelang7typesys5unify
FN:56,_RNvNtCs2uvitLWOfC0_8typelang7typesys6t_list
FN:182,_RNvNtCs2uvitLWOfC0_8typelang7typesys7compose
FN:229,_RNvNtCs2uvitLWOfC0_8typelang7typesys7env_ftv
FN:445,_RNvNtCs2uvitLWOfC0_8typelang7typesys7pp_type
FN:242,_RNvNtCs2uvitLWOfC0_8typelang7typesys7qualify
FN:64,_RNvNtCs2uvitLWOfC0_8typelang7typesys8t_string
FN:125,_RNvXNtCs2uvitLWOfC0_8typelang7typesysNtB2_4TypeNtB2_13Substitutable11apply_subst
FN:154,_RNvXs0_NtCs2uvitLWOfC0_8typelang7typesysNtB5_8QualTypeNtB5_13Substitutable11apply_subst
FN:167,_RNvXs1_NtCs2uvitLWOfC0_8typelang7typesysNtB5_6SchemeNtB5_13Substitutable11apply_subst
FN:223,_RNvXs3_NtCs2uvitLWOfC0_8typelang7typesysNtB5_7TypeEnvNtNtCs7sLWcwAdHqg_4core7default7Default7default
FN:271,_RNvXs5_NtCs2uvitLWOfC0_8typelang7typesysNtB5_10TVarSupplyNtNtCs7sLWcwAdHqg_4core7default7Default7default
FN:145,_RNvXs_NtCs2uvitLWOfC0_8typelang7typesysNtB4_10ConstraintNtB4_13Substitutable11apply_subst
FN:211,_RINvMs2_NtCs2uvitLWOfC0_8typelang7typesysNtB6_7TypeEnv6extendNtNtCsbz1uUYW1aEc_5alloc6string6StringEB8_
FN:211,_RINvMs2_NtCs2uvitLWOfC0_8typelang7typesysNtB6_7TypeEnv6extendReEB8_
FN:304,_RINvMs6_NtCs2uvitLWOfC0_8typelang7typesysNtB6_10UnifyError3newNtNtCsbz1uUYW1aEc_5alloc6string6StringEB8_
FN:304,_RINvMs6_NtCs2uvitLWOfC0_8typelang7typesysNtB6_10UnifyError3newReEB8_
FN:387,_RINvMs7_NtCs2uvitLWOfC0_8typelang7typesysNtB6_8ClassEnv12add_instanceReB15_EB8_
FN:378,_RINvMs7_NtCs2uvitLWOfC0_8typelang7typesysNtB6_8ClassEnv9add_classReB11_AB11_j1_EB8_
FN:378,_RINvMs7_NtCs2uvitLWOfC0_8typelang7typesysNtB6_8ClassEnv9add_classReB11_INtNtNtNtCs7sLWcwAdHqg_4core4iter7sources5empty5EmptyB11_EEB8_
FN:384,_RNCINvMs7_NtCs2uvitLWOfC0_8typelang7typesysNtB8_8ClassEnv9add_classReB13_AB13_j1_E0Ba_
FN:384,_RNCINvMs7_NtCs2uvitLWOfC0_8typelang7typesysNtB8_8ClassEnv9add_classReB13_INtNtNtNtCs7sLWcwAdHqg_4core4iter7sources5empty5EmptyB13_EE0Ba_
FN:414,_RNCNvMs7_NtCs2uvitLWOfC0_8typelang7typesysNtB7_8ClassEnv11entails_one0B9_
FN:437,_RNCNvMs7_NtCs2uvitLWOfC0_8typelang7typesysNtB7_8ClassEnv12has_instance0B9_
FN:392,_RNCNvMs7_NtCs2uvitLWOfC0_8typelang7typesysNtB7_8ClassEnv7entails0B9_
FN:282,_RNCNvNtCs2uvitLWOfC0_8typelang7typesys10generalize0B5_
FN:533,_RNCNvNtCs2uvitLWOfC0_8typelang7typesys14pp_constraints0B5_
FN:522,_RNCNvNtCs2uvitLWOfC0_8typelang7typesys25constraints_with_typevars0B5_
FN:547,_RNCNvNtCs2uvitLWOfC0_8typelang7typesys28constraints_relevant_to_type0B5_
FN:184,_RNCNvNtCs2uvitLWOfC0_8typelang7typesys7compose0B5_
FN:481,_RNCNvNtCs2uvitLWOfC0_8typelang7typesys7pp_type0B5_
FN:127,_RNCNvXNtCs2uvitLWOfC0_8typelang7typesysNtB4_4TypeNtB4_13Substitutable11apply_subst0B6_
FN:138,_RNCNvXNtCs2uvitLWOfC0_8typelang7typesysNtB4_4TypeNtB4_13Substitutable11apply_substs_0B6_
FN:159,_RNCNvXs0_NtCs2uvitLWOfC0_8typelang7typesysNtB7_8QualTypeNtB7_13Substitutable11apply_subst0B9_
FN:172,_RNCNvXs1_NtCs2uvitLWOfC0_8typelang7typesysNtB7_6SchemeNtB7_13Substitutable11apply_substs0_0B9_
FN:171,_RNCNvXs1_NtCs2uvitLWOfC0_8typelang7typesysNtB7_6SchemeNtB7_13Substitutable11apply_substs_0B9_
FN:414,_RNCNvMs7_NtCsdipHdHAMW8K_8typelang7typesysNtB7_8ClassEnv11entails_one0B9_
FN:437,_RNCNvMs7_NtCsdipHdHAMW8K_8typelang7typesysNtB7_8ClassEnv12has_instance0B9_
FN:392,_RNCNvMs7_NtCsdipHdHAMW8K_8typelang7typesysNtB7_8ClassEnv7entails0B9_
FN:172,_RNCNvXs1_NtCsdipHdHAMW8K_8typelang7typesysNtB7_6SchemeNtB7_13Substitutable11apply_substs0_0B9_
FN:171,_RNCNvXs1_NtCsdipHdHAMW8K_8typelang7typesysNtB7_6SchemeNtB7_13Substitutable11apply_substs_0B9_
FN:395,_RNvMs7_NtCsdipHdHAMW8K_8typelang7typesysNtB5_8ClassEnv11entails_one
FN:429,_RNvMs7_NtCsdipHdHAMW8K_8typelang7typesysNtB5_8ClassEnv12has_instance
FN:391,_RNvMs7_NtCsdipHdHAMW8K_8typelang7typesysNtB5_8ClassEnv7entails
FN:167,_RNvXs1_NtCsdipHdHAMW8K_8typelang7typesysNtB5_6SchemeNtB5_13Substitutable11apply_subst
FN:223,_RNvXs3_NtCsdipHdHAMW8K_8typelang7typesysNtB5_7TypeEnvNtNtCs7sLWcwAdHqg_4core7default7Default7default
FN:211,_RINvMs2_NtCsdipHdHAMW8K_8typelang7typesysNtB6_7TypeEnv6extendNtNtCsbz1uUYW1aEc_5alloc6string6StringEB8_
FN:211,_RINvMs2_NtCsdipHdHAMW8K_8typelang7typesysNtB6_7TypeEnv6extendReEB8_
FN:304,_RINvMs6_NtCsdipHdHAMW8K_8typelang7typesysNtB6_10UnifyError3newNtNtCsbz1uUYW1aEc_5alloc6string6StringEB8_
FN:304,_RINvMs6_NtCsdipHdHAMW8K_8typelang7typesysNtB6_10UnifyError3newReEB8_
FN:387,_RINvMs7_NtCsdipHdHAMW8K_8typelang7typesysNtB6_8ClassEnv12add_instanceReB15_EB8_
FN:378,_RINvMs7_NtCsdipHdHAMW8K_8typelang7typesysNtB6_8ClassEnv9add_classReB11_AB11_j1_EB8_
FN:378,_RINvMs7_NtCsdipHdHAMW8K_8typelang7typesysNtB6_8ClassEnv9add_classReB11_INtNtNtNtCs7sLWcwAdHqg_4core4iter7sources5empty5EmptyB11_EEB8_
FN:384,_RNCINvMs7_NtCsdipHdHAMW8K_8typelang7typesysNtB8_8ClassEnv9add_classReB13_AB13_j1_E0Ba_
FN:384,_RNCINvMs7_NtCsdipHdHAMW8K_8typelang7typesysNtB8_8ClassEnv9add_classReB13_INtNtNtNtCs7sLWcwAdHqg_4core4iter7sources5empty5EmptyB13_EE0Ba_
FN:282,_RNCNvNtCsdipHdHAMW8K_8typelang7typesys10generalize0B5_
FN:533,_RNCNvNtCsdipHdHAMW8K_8typelang7typesys14pp_constraints0B5_
FN:522,_RNCNvNtCsdipHdHAMW8K_8typelang7typesys25constraints_with_typevars0B5_
FN:547,_RNCNvNtCsdipHdHAMW8K_8typelang7typesys28constraints_relevant_to_type0B5_
FN:184,_RNCNvNtCsdipHdHAMW8K_8typelang7typesys7compose0B5_
FN:481,_RNCNvNtCsdipHdHAMW8K_8typelang7typesys7pp_type0B5_
FN:127,_RNCNvXNtCsdipHdHAMW8K_8typelang7typesysNtB4_4TypeNtB4_13Substitutable11apply_subst0B6_
FN:138,_RNCNvXNtCsdipHdHAMW8K_8typelang7typesysNtB4_4TypeNtB4_13Substitutable11apply_substs_0B6_
FN:159,_RNCNvXs0_NtCsdipHdHAMW8K_8typelang7typesysNtB7_8QualTypeNtB7_13Substitutable11apply_subst0B9_
FN:199,_RNvMs2_NtCsdipHdHAMW8K_8typelang7typesysNtB5_7TypeEnv3new
FN:215,_RNvMs2_NtCsdipHdHAMW8K_8typelang7typesysNtB5_7TypeEnv6lookup
FN:205,_RNvMs2_NtCsdipHdHAMW8K_8typelang7typesysNtB5_7TypeEnv9clone_env
FN:257,_RNvMs4_NtCsdipHdHAMW8K_8typelang7typesysNtB5_10TVarSupply3new
FN:261,_RNvMs4_NtCsdipHdHAMW8K_8typelang7typesysNtB5_10TVarSupply5fresh
FN:277,_RNvNtCsdipHdHAMW8K_8typelang7typesys10generalize
FN:288,_RNvNtCsdipHdHAMW8K_8typelang7typesys11instantiate
FN:491,_RNvNtCsdipHdHAMW8K_8typelang7typesys11key_of_type
FN:562,_RNvNtCsdipHdHAMW8K_8typelang7typesys11pretty_qual
FN:528,_RNvNtCsdipHdHAMW8K_8typelang7typesys14pp_constraints
FN:507,_RNvNtCsdipHdHAMW8K_8typelang7typesys21normalize_constraints
FN:585,_RNvNtCsdipHdHAMW8K_8typelang7typesys23apply_defaulting_simple
FN:520,_RNvNtCsdipHdHAMW8K_8typelang7typesys25constraints_with_typevars
FN:542,_RNvNtCsdipHdHAMW8K_8typelang7typesys28constraints_relevant_to_type
FN:100,_RNvNtCsdipHdHAMW8K_8typelang7typesys3ftv
FN:356,_RNvNtCsdipHdHAMW8K_8typelang7typesys4bind
FN:313,_RNvNtCsdipHdHAMW8K_8typelang7typesys5unify
FN:56,_RNvNtCsdipHdHAMW8K_8typelang7typesys6t_list
FN:182,_RNvNtCsdipHdHAMW8K_8typelang7typesys7compose
FN:229,_RNvNtCsdipHdHAMW8K_8typelang7typesys7env_ftv
FN:445,_RNvNtCsdipHdHAMW8K_8typelang7typesys7pp_type
FN:242,_RNvNtCsdipHdHAMW8K_8typelang7typesys7qualify
FN:64,_RNvNtCsdipHdHAMW8K_8typelang7typesys8t_string
FN:125,_RNvXNtCsdipHdHAMW8K_8typelang7typesysNtB2_4TypeNtB2_13Substitutable11apply_subst
FN:154,_RNvXs0_NtCsdipHdHAMW8K_8typelang7typesysNtB5_8QualTypeNtB5_13Substitutable11apply_subst
FN:271,_RNvXs5_NtCsdipHdHAMW8K_8typelang7typesysNtB5_10TVarSupplyNtNtCs7sLWcwAdHqg_4core7default7Default7default
FN:145,_RNvXs_NtCsdipHdHAMW8K_8typelang7typesysNtB4_10ConstraintNtB4_13Substitutable11apply_subst
FNDA:18,_RNvMs2_NtCs2uvitLWOfC0_8typelang7typesysNtB5_7TypeEnv3new
FNDA:106,_RNvMs2_NtCs2uvitLWOfC0_8typelang7typesysNtB5_7TypeEnv6lookup
FNDA:34,_RNvMs2_NtCs2uvitLWOfC0_8typelang7typesysNtB5_7TypeEnv9clone_env
FNDA:77,_RNvMs4_NtCs2uvitLWOfC0_8typelang7typesysNtB5_10TVarSupply3new
FNDA:438,_RNvMs4_NtCs2uvitLWOfC0_8typelang7typesysNtB5_10TVarSupply5fresh
FNDA:0,_RNvMs7_NtCs2uvitLWOfC0_8typelang7typesysNtB5_8ClassEnv11entails_one
FNDA:0,_RNvMs7_NtCs2uvitLWOfC0_8typelang7typesysNtB5_8ClassEnv12has_instance
FNDA:0,_RNvMs7_NtCs2uvitLWOfC0_8typelang7typesysNtB5_8ClassEnv7entails
FNDA:51,_RNvNtCs2uvitLWOfC0_8typelang7typesys10generalize
FNDA:100,_RNvNtCs2uvitLWOfC0_8typelang7typesys11instantiate
FNDA:29,_RNvNtCs2uvitLWOfC0_8typelang7typesys11key_of_type
FNDA:13,_RNvNtCs2uvitLWOfC0_8typelang7typesys11pretty_qual
FNDA:13,_RNvNtCs2uvitLWOfC0_8typelang7typesys14pp_constraints
FNDA:13,_RNvNtCs2uvitLWOfC0_8typelang7typesys21normalize_constraints
FNDA:28,_RNvNtCs2uvitLWOfC0_8typelang7typesys23apply_defaulting_simple
FNDA:13,_RNvNtCs2uvitLWOfC0_8typelang7typesys25constraints_with_typevars
FNDA:13,_RNvNtCs2uvitLWOfC0_8typelang7typesys28constraints_relevant_to_type
FNDA:5556,_RNvNtCs2uvitLWOfC0_8typelang7typesys3ftv
FNDA:200,_RNvNtCs2uvitLWOfC0_8typelang7typesys4bind
FNDA:341,_RNvNtCs2uvitLWOfC0_8typelang7typesys5unify
FNDA:28,_RNvNtCs2uvitLWOfC0_8typelang7typesys6t_list
FNDA:224,_RNvNtCs2uvitLWOfC0_8typelang7typesys7compose
FNDA:51,_RNvNtCs2uvitLWOfC0_8typelang7typesys7env_ftv
FNDA:27,_RNvNtCs2uvitLWOfC0_8typelang7typesys7pp_type
FNDA:361,_RNvNtCs2uvitLWOfC0_8typelang7typesys7qualify
FNDA:23,_RNvNtCs2uvitLWOfC0_8typelang7typesys8t_string
FNDA:3548,_RNvXNtCs2uvitLWOfC0_8typelang7typesysNtB2_4TypeNtB2_13Substitutable11apply_subst
FNDA:462,_RNvXs0_NtCs2uvitLWOfC0_8typelang7typesysNtB5_8QualTypeNtB5_13Substitutable11apply_subst
FNDA:0,_RNvXs1_NtCs2uvitLWOfC0_8typelang7typesysNtB5_6SchemeNtB5_13Substitutable11apply_subst
FNDA:0,_RNvXs3_NtCs2uvitLWOfC0_8typelang7typesysNtB5_7TypeEnvNtNtCs7sLWcwAdHqg_4core7default7Default7default
FNDA:47,_RNvXs5_NtCs2uvitLWOfC0_8typelang7typesysNtB5_10TVarSupplyNtNtCs7sLWcwAdHqg_4core7default7Default7default
FNDA:522,_RNvXs_NtCs2uvitLWOfC0_8typelang7typesysNtB4_10ConstraintNtB4_13Substitutable11apply_subst
FNDA:84,_RINvMs2_NtCs2uvitLWOfC0_8typelang7typesysNtB6_7TypeEnv6extendNtNtCsbz1uUYW1aEc_5alloc6string6StringEB8_
FNDA:234,_RINvMs2_NtCs2uvitLWOfC0_8typelang7typesysNtB6_7TypeEnv6extendReEB8_
FNDA:4,_RINvMs6_NtCs2uvitLWOfC0_8typelang7typesysNtB6_10UnifyError3newNtNtCsbz1uUYW1aEc_5alloc6string6StringEB8_
FNDA:1,_RINvMs6_NtCs2uvitLWOfC0_8typelang7typesysNtB6_10UnifyError3newReEB8_
FNDA:396,_RINvMs7_NtCs2uvitLWOfC0_8typelang7typesysNtB6_8ClassEnv12add_instanceReB15_EB8_
FNDA:36,_RINvMs7_NtCs2uvitLWOfC0_8typelang7typesysNtB6_8ClassEnv9add_classReB11_AB11_j1_EB8_
FNDA:54,_RINvMs7_NtCs2uvitLWOfC0_8typelang7typesysNtB6_8ClassEnv9add_classReB11_INtNtNtNtCs7sLWcwAdHqg_4core4iter7sources5empty5EmptyB11_EEB8_
FNDA:36,_RNCINvMs7_NtCs2uvitLWOfC0_8typelang7typesysNtB8_8ClassEnv9add_classReB13_AB13_j1_E0Ba_
FNDA:0,_RNCINvMs7_NtCs2uvitLWOfC0_8typelang7typesysNtB8_8ClassEnv9add_classReB13_INtNtNtNtCs7sLWcwAdHqg_4core4iter7sources5empty5EmptyB13_EE0Ba_
FNDA:0,_RNCNvMs7_NtCs2uvitLWOfC0_8typelang7typesysNtB7_8ClassEnv11entails_one0B9_
FNDA:0,_RNCNvMs7_NtCs2uvitLWOfC0_8typelang7typesysNtB7_8ClassEnv12has_instance0B9_
FNDA:0,_RNCNvMs7_NtCs2uvitLWOfC0_8typelang7typesysNtB7_8ClassEnv7entails0B9_
FNDA:25,_RNCNvNtCs2uvitLWOfC0_8typelang7typesys10generalize0B5_
FNDA:0,_RNCNvNtCs2uvitLWOfC0_8typelang7typesys14pp_constraints0B5_
FNDA:19,_RNCNvNtCs2uvitLWOfC0_8typelang7typesys25constraints_with_typevars0B5_
FNDA:10,_RNCNvNtCs2uvitLWOfC0_8typelang7typesys28constraints_relevant_to_type0B5_
FNDA:436,_RNCNvNtCs2uvitLWOfC0_8typelang7typesys7compose0B5_
FNDA:0,_RNCNvNtCs2uvitLWOfC0_8typelang7typesys7pp_type0B5_
FNDA:1216,_RNCNvXNtCs2uvitLWOfC0_8typelang7typesysNtB4_4TypeNtB4_13Substitutable11apply_subst0B6_
FNDA:238,_RNCNvXNtCs2uvitLWOfC0_8typelang7typesysNtB4_4TypeNtB4_13Substitutable11apply_substs_0B6_
FNDA:522,_RNCNvXs0_NtCs2uvitLWOfC0_8typelang7typesysNtB7_8QualTypeNtB7_13Substitutable11apply_subst0B9_
FNDA:0,_RNCNvXs1_NtCs2uvitLWOfC0_8typelang7typesysNtB7_6SchemeNtB7_13Substitutable11apply_substs0_0B9_
FNDA:0,_RNCNvXs1_NtCs2uvitLWOfC0_8typelang7typesysNtB7_6SchemeNtB7_13Substitutable11apply_substs_0B9_
FNDA:0,_RNCNvMs7_NtCsdipHdHAMW8K_8typelang7typesysNtB7_8ClassEnv11entails_one0B9_
FNDA:0,_RNCNvMs7_NtCsdipHdHAMW8K_8typelang7typesysNtB7_8ClassEnv12has_instance0B9_
FNDA:0,_RNCNvMs7_NtCsdipHdHAMW8K_8typelang7typesysNtB7_8ClassEnv7entails0B9_
FNDA:0,_RNCNvXs1_NtCsdipHdHAMW8K_8typelang7typesysNtB7_6SchemeNtB7_13Substitutable11apply_substs0_0B9_
FNDA:0,_RNCNvXs1_NtCsdipHdHAMW8K_8typelang7typesysNtB7_6SchemeNtB7_13Substitutable11apply_substs_0B9_
FNDA:0,_RNvMs7_NtCsdipHdHAMW8K_8typelang7typesysNtB5_8ClassEnv11entails_one
FNDA:0,_RNvMs7_NtCsdipHdHAMW8K_8typelang7typesysNtB5_8ClassEnv12has_instance
FNDA:0,_RNvMs7_NtCsdipHdHAMW8K_8typelang7typesysNtB5_8ClassEnv7entails
FNDA:0,_RNvXs1_NtCsdipHdHAMW8K_8typelang7typesysNtB5_6SchemeNtB5_13Substitutable11apply_subst
FNDA:0,_RNvXs3_NtCsdipHdHAMW8K_8typelang7typesysNtB5_7TypeEnvNtNtCs7sLWcwAdHqg_4core7default7Default7default
FNDA:3,_RINvMs2_NtCsdipHdHAMW8K_8typelang7typesysNtB6_7TypeEnv6extendNtNtCsbz1uUYW1aEc_5alloc6string6StringEB8_
FNDA:17,_RINvMs2_NtCsdipHdHAMW8K_8typelang7typesysNtB6_7TypeEnv6extendReEB8_
FNDA:0,_RINvMs6_NtCsdipHdHAMW8K_8typelang7typesysNtB6_10UnifyError3newNtNtCsbz1uUYW1aEc_5alloc6string6StringEB8_
FNDA:0,_RINvMs6_NtCsdipHdHAMW8K_8typelang7typesysNtB6_10UnifyError3newReEB8_
FNDA:220,_RINvMs7_NtCsdipHdHAMW8K_8typelang7typesysNtB6_8ClassEnv12add_instanceReB15_EB8_
FNDA:20,_RINvMs7_NtCsdipHdHAMW8K_8typelang7typesysNtB6_8ClassEnv9add_classReB11_AB11_j1_EB8_
FNDA:30,_RINvMs7_NtCsdipHdHAMW8K_8typelang7typesysNtB6_8ClassEnv9add_classReB11_INtNtNtNtCs7sLWcwAdHqg_4core4iter7sources5empty5EmptyB11_EEB8_
FNDA:20,_RNCINvMs7_NtCsdipHdHAMW8K_8typelang7typesysNtB8_8ClassEnv9add_classReB13_AB13_j1_E0Ba_
FNDA:0,_RNCINvMs7_NtCsdipHdHAMW8K_8typelang7typesysNtB8_8ClassEnv9add_classReB13_INtNtNtNtCs7sLWcwAdHqg_4core4iter7sources5empty5EmptyB13_EE0Ba_
FNDA:0,_RNCNvNtCsdipHdHAMW8K_8typelang7typesys10generalize0B5_
FNDA:0,_RNCNvNtCsdipHdHAMW8K_8typelang7typesys14pp_constraints0B5_
FNDA:16,_RNCNvNtCsdipHdHAMW8K_8typelang7typesys25constraints_with_typevars0B5_
FNDA:14,_RNCNvNtCsdipHdHAMW8K_8typelang7typesys28constraints_relevant_to_type0B5_
FNDA:4,_RNCNvNtCsdipHdHAMW8K_8typelang7typesys7compose0B5_
FNDA:0,_RNCNvNtCsdipHdHAMW8K_8typelang7typesys7pp_type0B5_
FNDA:29,_RNCNvXNtCsdipHdHAMW8K_8typelang7typesysNtB4_4TypeNtB4_13Substitutable11apply_subst0B6_
FNDA:0,_RNCNvXNtCsdipHdHAMW8K_8typelang7typesysNtB4_4TypeNtB4_13Substitutable11apply_substs_0B6_
FNDA:20,_RNCNvXs0_NtCsdipHdHAMW8K_8typelang7typesysNtB7_8QualTypeNtB7_13Substitutable11apply_subst0B9_
FNDA:10,_RNvMs2_NtCsdipHdHAMW8K_8typelang7typesysNtB5_7TypeEnv3new
FNDA:25,_RNvMs2_NtCsdipHdHAMW8K_8typelang7typesysNtB5_7TypeEnv6lookup
FNDA:3,_RNvMs2_NtCsdipHdHAMW8K_8typelang7typesysNtB5_7TypeEnv9clone_env
FNDA:9,_RNvMs4_NtCsdipHdHAMW8K_8typelang7typesysNtB5_10TVarSupply3new
FNDA:22,_RNvMs4_NtCsdipHdHAMW8K_8typelang7typesysNtB5_10TVarSupply5fresh
FNDA:5,_RNvNtCsdipHdHAMW8K_8typelang7typesys10generalize
FNDA:1,_RNvNtCsdipHdHAMW8K_8typelang7typesys11instantiate
FNDA:18,_RNvNtCsdipHdHAMW8K_8typelang7typesys11key_of_type
FNDA:19,_RNvNtCsdipHdHAMW8K_8typelang7typesys11pretty_qual
FNDA:19,_RNvNtCsdipHdHAMW8K_8typelang7typesys14pp_constraints
FNDA:19,_RNvNtCsdipHdHAMW8K_8typelang7typesys21normalize_constraints
FNDA:4,_RNvNtCsdipHdHAMW8K_8typelang7typesys23apply_defaulting_simple
FNDA:19,_RNvNtCsdipHdHAMW8K_8typelang7typesys25constraints_with_typevars
FNDA:19,_RNvNtCsdipHdHAMW8K_8typelang7typesys28constraints_relevant_to_type
FNDA:179,_RNvNtCsdipHdHAMW8K_8typelang7typesys3ftv
FNDA:4,_RNvNtCsdipHdHAMW8K_8typelang7typesys4bind
FNDA:6,_RNvNtCsdipHdHAMW8K_8typelang7typesys5unify
FNDA:1,_RNvNtCsdipHdHAMW8K_8typelang7typesys6t_list
FNDA:4,_RNvNtCsdipHdHAMW8K_8typelang7typesys7compose
FNDA:5,_RNvNtCsdipHdHAMW8K_8typelang7typesys7env_ftv
FNDA:84,_RNvNtCsdipHdHAMW8K_8typelang7typesys7pp_type
FNDA:21,_RNvNtCsdipHdHAMW8K_8typelang7typesys7qualify
FNDA:1,_RNvNtCsdipHdHAMW8K_8typelang7typesys8t_string
FNDA:73,_RNvXNtCsdipHdHAMW8K_8typelang7typesysNtB2_4TypeNtB2_13Substitutable11apply_subst
FNDA:15,_RNvXs0_NtCsdipHdHAMW8K_8typelang7typesysNtB5_8QualTypeNtB5_13Substitutable11apply_subst
FNDA:8,_RNvXs5_NtCsdipHdHAMW8K_8typelang7typesysNtB5_10TVarSupplyNtNtCs7sLWcwAdHqg_4core7default7Default7default
FNDA:20,_RNvXs_NtCsdipHdHAMW8K_8typelang7typesysNtB4_10ConstraintNtB4_13Substitutable11apply_subst
FNF:51
FNH:39
DA:56,29
DA:57,29
DA:58,29
DA:59,29
DA:60,29
DA:61,29
DA:64,24
DA:65,24
DA:66,24
DA:67,24
DA:68,24
DA:100,5735
DA:101,5735
DA:102,2487
DA:103,1260
DA:104,135
DA:105,135
DA:106,135
DA:107,135
DA:109,1738
DA:110,1738
DA:111,1738
DA:112,1738
DA:114,115
DA:115,115
DA:116,597
DA:117,482
DA:118,482
DA:119,115
DA:122,5735
DA:125,3621
DA:126,3621
DA:127,2193
DA:128,714
DA:129,51
DA:130,51
DA:131,51
DA:132,51
DA:133,605
DA:134,605
DA:135,605
DA:136,605
DA:137,58
DA:138,238
DA:141,3621
DA:145,542
DA:146,542
DA:147,542
DA:148,542
DA:149,542
DA:150,542
DA:154,477
DA:156,477
DA:157,477
DA:158,477
DA:159,542
DA:160,477
DA:161,477
DA:163,477
DA:167,0
DA:168,0
DA:169,0
DA:170,0
DA:171,0
DA:172,0
DA:173,0
DA:174,0
DA:175,0
DA:176,0
DA:177,0
DA:178,0
DA:182,228
DA:184,440
DA:185,475
DA:186,247
DA:187,247
DA:188,228
DA:189,228
DA:199,28
DA:200,28
DA:201,28
DA:202,28
DA:203,28
DA:205,37
DA:206,37
DA:207,37
DA:208,37
DA:209,37
DA:211,338
DA:212,338
DA:213,338
DA:215,131
DA:216,131
DA:217,131
DA:223,0
DA:224,0
DA:225,0
DA:229,56
DA:230,56
DA:231,1184
DA:232,1184
DA:233,2101
DA:234,917
DA:235,917
DA:236,1184
DA:238,56
DA:239,56
DA:242,382
DA:243,382
DA:244,382
DA:245,382
DA:246,382
DA:247,382
DA:257,86
DA:258,86
DA:259,86
DA:261,460
DA:262,460
DA:263,460
DA:264,460
DA:265,460
DA:271,55
DA:272,55
DA:273,55
DA:277,56
DA:278,56
DA:279,56
DA:280,56
DA:281,56
DA:282,56
DA:283,56
DA:284,56
DA:285,56
DA:288,101
DA:289,101
DA:290,143
DA:291,42
DA:292,42
DA:293,101
DA:294,101
DA:304,5
DA:305,5
DA:306,5
DA:307,5
DA:308,5
DA:309,5
DA:313,347
DA:314,347
DA:315,149
DA:316,55
DA:317,38
DA:318,38
DA:319,34
DA:321,4
DA:322,4
DA:323,4
DA:324,4
DA:327,5
DA:328,5
DA:329,5
DA:330,5
DA:332,96
DA:333,96
DA:334,96
DA:335,96
DA:337,4
DA:338,4
DA:339,0
DA:340,4
DA:341,4
DA:342,18
DA:343,18
DA:344,18
DA:346,4
DA:348,0
DA:349,0
DA:350,0
DA:351,0
DA:353,347
DA:356,204
DA:357,204
DA:358,131
DA:359,28
DA:360,103
DA:361,73
DA:362,176
DA:363,1
DA:364,175
DA:365,175
DA:366,175
DA:367,175
DA:368,204
DA:378,140
DA:379,140
DA:380,140
DA:381,140
DA:382,140
DA:383,140
DA:384,140
DA:385,140
DA:387,616
DA:388,616
DA:389,616
DA:391,0
DA:392,0
DA:393,0
DA:395,0
DA:396,0
DA:397,0
DA:398,0
DA:399,0
DA:400,0
DA:401,0
DA:402,0
DA:403,0
DA:404,0
DA:405,0
DA:406,0
DA:407,0
DA:408,0
DA:409,0
DA:410,0
DA:412,0
DA:413,0
DA:414,0
DA:415,0
DA:416,0
DA:417,0
DA:418,0
DA:419,0
DA:421,0
DA:424,0
DA:426,0
DA:429,0
DA:430,0
DA:431,0
DA:432,0
DA:434,0
DA:435,0
DA:436,0
DA:437,0
DA:439,0
DA:441,0
DA:445,111
DA:446,111
DA:447,57
DA:448,57
DA:449,19
DA:450,19
DA:451,38
DA:452,57
DA:453,57
DA:454,57
DA:455,57
DA:457,22
DA:458,3
DA:459,3
DA:460,3
DA:461,3
DA:462,0
DA:463,0
DA:464,0
DA:466,29
DA:467,29
DA:468,29
DA:469,0
DA:470,29
DA:471,29
DA:473,0
DA:474,0
DA:475,0
DA:477,0
DA:478,0
DA:479,0
DA:480,0
DA:481,0
DA:482,0
DA:483,0
DA:488,111
DA:491,47
DA:492,47
DA:493,27
DA:494,20
DA:495,0
DA:496,0
DA:497,0
DA:498,0
DA:499,0
DA:500,0
DA:504,47
DA:507,32
DA:508,32
DA:509,32
DA:510,79
DA:511,47
DA:512,47
DA:513,35
DA:514,35
DA:516,32
DA:517,32
DA:520,32
DA:521,32
DA:522,35
DA:523,32
DA:524,32
DA:525,32
DA:528,32
DA:529,32
DA:530,14
DA:531,18
DA:532,18
DA:533,18
DA:534,18
DA:535,36
DA:536,18
DA:537,18
DA:538,18
DA:539,32
DA:542,32
DA:545,32
DA:546,32
DA:547,32
DA:548,32
DA:549,32
DA:550,32
DA:562,32
DA:563,32
DA:564,32
DA:565,32
DA:566,32
DA:567,32
DA:568,32
DA:569,32
DA:570,32
DA:571,32
DA:585,32
DA:587,32
DA:589,90
DA:590,58
DA:591,12
DA:592,12
DA:593,12
DA:594,12
DA:595,12
DA:596,12
DA:597,12
DA:598,12
DA:599,46
DA:602,90
DA:603,58
DA:604,45
DA:605,36
DA:606,10
DA:607,10
DA:608,10
DA:609,10
DA:610,10
DA:611,10
DA:612,26
DA:613,9
DA:614,13
DA:616,32
DA:617,32
BRDA:318,0,0,34
BRDA:318,0,1,4
BRDA:338,0,0,0
BRDA:338,0,1,4
BRDA:357,0,0,131
BRDA:357,0,1,73
BRDA:358,0,0,28
BRDA:358,0,1,103
BRDA:362,0,0,1
BRDA:362,0,1,175
BRDA:399,0,0,-
BRDA:399,0,1,-
BRDA:400,0,0,-
BRDA:400,0,1,-
BRDA:403,0,0,-
BRDA:403,0,1,-
BRDA:403,1,2,-
BRDA:403,1,3,-
BRDA:403,2,4,-
BRDA:403,2,5,-
BRDA:413,0,0,-
BRDA:413,0,1,-
BRDA:413,1,2,-
BRDA:413,1,3,-
BRDA:430,0,0,-
BRDA:430,0,1,-
BRDA:436,0,0,-
BRDA:436,0,1,-
BRDA:448,0,0,19
BRDA:448,0,1,38
BRDA:459,0,0,3
BRDA:459,0,1,0
BRDA:460,0,0,3
BRDA:460,0,1,0
BRDA:474,0,0,-
BRDA:474,0,1,-
BRDA:512,0,0,35
BRDA:512,0,1,12
BRDA:529,0,0,14
BRDA:529,0,1,18
BRDA:590,0,0,12
BRDA:590,0,1,46
BRDA:591,0,0,12
BRDA:591,0,1,0
BRDA:603,0,0,45
BRDA:603,0,1,13
BRDA:604,0,0,36
BRDA:604,0,1,9
BRDA:605,0,0,10
BRDA:605,0,1,26
BRF:50
BRH:26
LF:378
LH:291
end_of_record